
Allocating common symbols
Common symbol       size              file

GfxIndex            0x4               codesegment.o
alignbuf            0x1c              codesegment.o
numleafs            0x4               codesegment.o
sectors             0x4               codesegment.o
shootthing          0x4               codesegment.o
tmp_patgrpdata      0x1c              codesegment.o
pm_stat             0x4               codesegment.o
EnableExpPak        0x4               codesegment.o
tmflags             0x4               codesegment.o
audDMAIOMesgBuf     0x4               codesegment.o
local_setup_packet  0x8               codesegment.o
opencount           0x4               codesegment.o
BT_DATA             0x4               codesegment.o
topslope            0x4               codesegment.o
sys_msgbuf_vbi4     0x8               codesegment.o
newsubsec           0x4               codesegment.o
bmapwidth           0x4               codesegment.o
skytexture          0x4               codesegment.o
totalitems          0x4               codesegment.o
ticremainder        0x4               codesegment.o
tryopen             0x18              codesegment.o
sys_msgque_vbi2     0x18              codesegment.o
viewcos             0x4               codesegment.o
__osBaseCounter     0x4               codesegment.o
vertexes            0x4               codesegment.o
pssbase             0x4               codesegment.o
cfb                 0x96000           cfb.o
numlinespecials     0x4               codesegment.o
minFrameSize        0x4               codesegment.o
tmceilingz          0x4               codesegment.o
firsttex            0x4               codesegment.o
vissprites          0x1800            codesegment.o
__kmc_pt_mode       0x4               codesegment.o
startmap            0x4               codesegment.o
sys_rcp_stack       0x400             codesegment.o
__osThreadSave      0x1b0             codesegment.o
spawncount          0x4               codesegment.o
gamepad_status      0x10              codesegment.o
bombdamage          0x4               codesegment.o
wess_dmaMessageBuf  0x20              codesegment.o
samplesbase         0x4               codesegment.o
_usb_device_state   0xb0              codesegment.o
infraredFactor      0x4               codesegment.o
macros              0x4               codesegment.o
linespeciallist     0x4               codesegment.o
File_Num            0x4               codesegment.o
bmaporgy            0x4               codesegment.o
__osProfileOverflowBin
                    0x4               codesegment.o
data_to_send        0x1               codesegment.o
numsides            0x4               codesegment.o
tmthing             0x4               codesegment.o
blockmaplump        0x4               codesegment.o
vid_side            0x4               codesegment.o
Mtx_base            0x200             codesegment.o
openbottom          0x4               codesegment.o
deathmocktics       0x4               codesegment.o
tmx                 0x4               codesegment.o
__osBbRCountWraps   0x4               codesegment.o
linepos             0x4               codesegment.o
aimpitch            0x4               codesegment.o
activeplats         0x78              codesegment.o
FireSide            0x4               codesegment.o
openrange           0x4               codesegment.o
rejectmatrix        0x4               codesegment.o
trace               0x10              codesegment.o
MapBlueKeyType      0x4               codesegment.o
MapRedKeyType       0x4               codesegment.o
ref_max_seq_num     0x4               codesegment.o
SkyFireData         0x8               codesegment.o
viewy               0x4               codesegment.o
voice               0x4               codesegment.o
__osContPifRam      0x40              codesegment.o
blockline           0x4               codesegment.o
ticbuttons          0x4               codesegment.o
__osRdb_IP6_CurWrite
                    0x4               codesegment.o
wmd_mem             0x4               codesegment.o
MusicID             0x4               codesegment.o
finesine            0xa000            codesegment.o
Pak_Memory          0x4               codesegment.o
reverb_status       0x4               codesegment.o
opentop             0x4               codesegment.o
SkyCloudData        0x4               codesegment.o
soundtarget         0x4               codesegment.o
DrawerStatus        0x4               codesegment.o
module_fileref      0x8               codesegment.o
checkposonly        0x4               codesegment.o
ppgd                0x4               codesegment.o
tmp_mss             0x24              codesegment.o
__osThprofHeap      0x800             codesegment.o
samplescmploopbase  0x4               codesegment.o
__Dom2SpeedParam    0x74              codesegment.o
__osProfileList     0x4               codesegment.o
pnotestate          0x208             codesegment.o
validcount          0x4               codesegment.o
samplescmphdrbase   0x4               codesegment.o
firstswx            0x4               codesegment.o
__osBbLastRCount    0x4               codesegment.o
__am                0x60              codesegment.o
video_hStart        0x4               codesegment.o
frontsector         0x4               codesegment.o
scrollfrac          0x4               codesegment.o
numvertexes         0x4               codesegment.o
seq_loader_enable   0x4               codesegment.o
bootStack           0x2000            codesegment.o
sys_ticker_thread   0x1b0             codesegment.o
wessdecomp          0x4               codesegment.o
numlights           0x4               codesegment.o
video_vStart2       0x4               codesegment.o
shotline            0x4               codesegment.o
FileState           0x200             codesegment.o
numdrawsubsectors   0x4               codesegment.o
ty2                 0x4               codesegment.o
err_text_x          0x4               codesegment.o
numthingspec        0x4               codesegment.o
bombspot            0x4               codesegment.o
__osViIntrCount     0x4               codesegment.o
LightningCounter    0x4               codesegment.o
SkyFlags            0x4               codesegment.o
gfx_yield_buff      0x6000            codesegment.o
am_plyblink         0x4               codesegment.o
nvss                0x4               codesegment.o
nextstage           0x4               codesegment.o
wesserr             0x4               codesegment.o
MapYellowKeyType    0x4               codesegment.o
__osThprofCount     0x4               codesegment.o
Skyfadeback         0x4               codesegment.o
tmfloorz            0x4               codesegment.o
dmaState            0xc               codesegment.o
cameratarget        0x4               codesegment.o
itemvalue           0x4               codesegment.o
bombsource          0x4               codesegment.o
idle_stack          0x2020            codesegment.o
intercepts          0x600             codesegment.o
macroactivator      0x4               codesegment.o
consoleplayer       0x4               codesegment.o
thingspec           0x20              codesegment.o
playerstarts        0xe               codesegment.o
attackrange         0x4               codesegment.o
m_actualmap         0x4               codesegment.o
__osBbUsbCtlrQ      0x30              codesegment.o
testflags           0x4               codesegment.o
secretvalue         0x4               codesegment.o
solidsubsectors     0x400             codesegment.o
sys_msgque_vbi4     0x18              codesegment.o
__osRdb_Read_Data_Ct
                    0x4               codesegment.o
ThunderCounter      0x4               codesegment.o
SkyPicSpace         0x4               codesegment.o
drummapsbase        0x4               codesegment.o
gamepad_bit_pattern
                    0x1               codesegment.o
pmsbase             0x4               codesegment.o
shootz              0x4               codesegment.o
pvsbase             0x4               codesegment.o
VtxIndex            0x4               codesegment.o
ticon               0x4               codesegment.o
t1ys                0x4               codesegment.o
wessstate           0x4               codesegment.o
ticsinframe         0x4               codesegment.o
trymove2            0x4               codesegment.o
patchesbase         0x4               codesegment.o
shootdirz           0x4               codesegment.o
MTX2                0x4               codesegment.o
GFX2                0x4               codesegment.o
cmploop             0x30              codesegment.o
__osRdb_IP6_Size    0x4               codesegment.o
PassCodePos         0x4               codesegment.o
tmbbox              0x10              codesegment.o
macrothinker        0x4               codesegment.o
ptsbase             0x4               codesegment.o
players             0x150             codesegment.o
numsectorspecials   0x4               codesegment.o
__usb_svc_callback_reg
                    0x4               codesegment.o
numsectors          0x4               codesegment.o
strace              0x10              codesegment.o
startskill          0x4               codesegment.o
usebbox             0x10              codesegment.o
m_vframe1           0x4               codesegment.o
macroidx2           0x4               codesegment.o
data_fileref        0x8               codesegment.o
nummacros           0x4               codesegment.o
SkyCloudOffsetY     0x4               codesegment.o
FogNear             0x4               codesegment.o
globallump          0x4               codesegment.o
pstats              0xc               codesegment.o
ref_pm_stat         0x4               codesegment.o
romcopy_msgbuf      0x4               codesegment.o
__osMaxControllers  0x1               codesegment.o
oldticbuttons       0x4               codesegment.o
totalsecret         0x4               codesegment.o
macroqueue          0x20              codesegment.o
PassInvalidTic      0x4               codesegment.o
acceleratestage     0x4               codesegment.o
__osCurrentTime     0x8               codesegment.o
R_ProjectionMatrix  0x40              codesegment.o
bulletslope         0x4               codesegment.o
sys_msg_joy         0x4               codesegment.o
video_vStart1       0x4               codesegment.o
wmd_size            0x4               codesegment.o
if_status           0x1               codesegment.o
dmaBuffs            0x4               codesegment.o
anims               0x21c             codesegment.o
viewsin             0x4               codesegment.o
wmd_mem_is_mine     0x4               codesegment.o
end_time            0x4               codesegment.o
t1xs                0x4               codesegment.o
__osThprofStack     0x4               codesegment.o
statuslump          0x4               codesegment.o
Error_func          0x4               codesegment.o
R_RenderSKY         0x4               codesegment.o
lastticon           0x4               codesegment.o
tmy                 0x4               codesegment.o
start_time          0x4               codesegment.o
sys_msgbuf_vbi      0x40              codesegment.o
itemlines           0x4               codesegment.o
bmaporgx            0x4               codesegment.o
linetarget          0x4               codesegment.o
useline             0x10              codesegment.o
lastanim            0x4               codesegment.o
am_box              0x10              codesegment.o
closeline           0x4               codesegment.o
aimfrac             0x4               codesegment.o
lasttex             0x4               codesegment.o
MenuData            0x80              codesegment.o
__osPiAccessQueue   0x18              codesegment.o
oldx                0x4               codesegment.o
subsectors          0x4               codesegment.o
intercept_p         0x4               codesegment.o
main_stack          0xa000            codesegment.o
gamevbls            0x4               codesegment.o
endsubsector        0x4               codesegment.o
segs                0x4               codesegment.o
cursorpos           0x4               codesegment.o
last_ticon          0x4               codesegment.o
__Dom1SpeedParam    0x74              codesegment.o
testy               0x4               codesegment.o
numtextures         0x4               codesegment.o
sfile_hdr           0x20              codesegment.o
slidething          0x4               codesegment.o
wessnode            0x14              codesegment.o
Error_module        0x4               codesegment.o
Pak_Data            0x4               codesegment.o
VTX1                0x4               codesegment.o
numsegs             0x4               codesegment.o
imask               0x4               codesegment.o
dev_global_struct   0x8               codesegment.o
fifo_buff           0x2000            codesegment.o
SkyCloudOffsetX     0x4               codesegment.o
firstsprite         0x4               codesegment.o
__osBbLastVCount    0x4               codesegment.o
usb_status          0x2               codesegment.o
nextmap             0x4               codesegment.o
SkyCloudColor       0x4               codesegment.o
numsprites          0x4               codesegment.o
solidcols           0x140             codesegment.o
emptymobj           0x94              codesegment.o
restartmacro        0x4               codesegment.o
sys_msgque_vbi3     0x18              codesegment.o
demoplayback        0x4               codesegment.o
tmdropoffz          0x4               codesegment.o
totalkills          0x4               codesegment.o
gameskill           0x4               codesegment.o
samplesinfochunk    0x4               codesegment.o
bmapheight          0x4               codesegment.o
numlines            0x4               codesegment.o
viewplayer          0x4               codesegment.o
testx               0x4               codesegment.o
__osThprofLastTimer
                    0x4               codesegment.o
sysinit             0x4               codesegment.o
mem_heap            0x26b510          mem_heap.o
viewz               0x4               codesegment.o
__osContLastCmd     0x1               codesegment.o
t2y                 0x4               codesegment.o
shootdiry           0x4               codesegment.o
__osEepromTimerMsg  0x4               codesegment.o
flashCards          0x60              codesegment.o
gametic             0x4               codesegment.o
__osBaseTimer       0x20              codesegment.o
__osRdb_IP6_CurSend
                    0x4               codesegment.o
nodes               0x4               codesegment.o
msgbuf_Pi           0x200             codesegment.o
GFX1                0x4               codesegment.o
textures            0x4               codesegment.o
FlashEnvColor       0x4               codesegment.o
numnodes            0x4               codesegment.o
audDMAMessageQ      0x18              codesegment.o
__osTimerCounter    0x4               codesegment.o
idle_thread         0x1b0             codesegment.o
samplesrawloopbase  0x4               codesegment.o
testradius          0x4               codesegment.o
pcurabstime         0x4               codesegment.o
vblsinframe         0x4               codesegment.o
macroidx1           0x4               codesegment.o
globalcm            0x4               codesegment.o
SkyVoidColor        0x4               codesegment.o
sys_msgbuf_vbi2     0x8               codesegment.o
MenuAnimationTic    0x4               codesegment.o
thinkercap          0xc               codesegment.o
loaderfile          0x4               codesegment.o
__usb_endpt_desc_reg
                    0x4               codesegment.o
gamepad_data        0x4               codesegment.o
sys_msgque_vbi      0x18              codesegment.o
lights              0x4               codesegment.o
lastsprite          0x4               codesegment.o
demorecording       0x4               codesegment.o
am_plycolor         0x4               codesegment.o
main_thread         0x1b0             codesegment.o
bottomslope         0x4               codesegment.o
g_wddloc            0x4               codesegment.o
quakeviewx          0x4               codesegment.o
checkthing          0x4               codesegment.o
sfontlump           0x4               codesegment.o
wess_dmaMessageQ    0x18              codesegment.o
displayplayer       0x4               codesegment.o
sof_count           0x2               codesegment.o
seq_loader_offset   0x4               codesegment.o
__osBbVCountWraps   0x4               codesegment.o
leafs               0x4               codesegment.o
bestslidefrac       0x4               codesegment.o
activemacro         0x4               codesegment.o
__osArcHostHandle   0x8               codesegment.o
vid_task            0x4               codesegment.o
MenuItem            0x4               codesegment.o
ControllerPak       0x68              codesegment.o
Gfx_base            0x14000           codesegment.o
tmp_moddata         0x24              codesegment.o
floatok             0x4               codesegment.o
__osProfileListEnd  0x4               codesegment.o
sectorspeciallist   0x4               codesegment.o
romcopy_msgque      0x18              codesegment.o
mobjhead            0x94              codesegment.o
audDMAMessageBuf    0x4               codesegment.o
__osProfTimerQ      0x18              codesegment.o
aimslope            0x4               codesegment.o
msgque_Pi           0x18              codesegment.o
sides               0x4               codesegment.o
sys_ticker_stack    0x1000            codesegment.o
blockmap            0x4               codesegment.o
__osEepromTimer     0x20              codesegment.o
killvalue           0x4               codesegment.o
err_text_y          0x4               codesegment.o
wmd_end             0x4               codesegment.o
__osRdb_Read_Data_Buf
                    0x4               codesegment.o
t2xs                0x4               codesegment.o
maxRSPCmds          0x4               codesegment.o
blocklinks          0x4               codesegment.o
__Usb_Reset_Count   0x8               codesegment.o
music_sequence      0x4               codesegment.o
viewangle           0x4               codesegment.o
numdrawvissprites   0x4               codesegment.o
tx2                 0x4               codesegment.o
early_exit          0x4               codesegment.o
macroline           0x4               codesegment.o
__osRdb_Usb_StartSend
                    0x4               codesegment.o
__osPfsInodeCache   0x100             codesegment.o
t2x                 0x4               codesegment.o
visspritehead       0x4               codesegment.o
maplights           0x4               codesegment.o
la_damage           0x4               codesegment.o
t2ys                0x4               codesegment.o
scratch_area        0x20              codesegment.o
VTX2                0x4               codesegment.o
gamemap             0x4               codesegment.o
Pak_Size            0x4               codesegment.o
buttonlist          0x140             codesegment.o
__osEventStateTab   0x110             codesegment.o
viewx               0x4               codesegment.o
activeceilings      0x78              codesegment.o
timetext            0x10              codesegment.o
maxFrameSize        0x4               codesegment.o
gameaction          0x4               codesegment.o
endpoint            0x1               codesegment.o
Vtx_base            0x18000           codesegment.o
quakeviewy          0x4               codesegment.o
lowfloor            0x4               codesegment.o
camviewpitch        0x4               codesegment.o
__osRdb_IP6_Data    0x4               codesegment.o
patchmapsbase       0x4               codesegment.o
sumbolslump         0x4               codesegment.o
shootdirx           0x4               codesegment.o
bestslideline       0x4               codesegment.o
__osPfsPifRam       0x40              codesegment.o
thprof              0x400             codesegment.o
rendersky           0x4               codesegment.o
spawnlist           0x4               codesegment.o
macrotempline       0x4c              codesegment.o
setup_packet        0x8               codesegment.o
__osEepromTimerQ    0x18              codesegment.o
MenuCall            0x4               codesegment.o
mainzone            0x4               codesegment.o
sys_msgbuf_vbi3     0x8               codesegment.o
module_loaded       0x4               codesegment.o
fp_seq_file         0x4               codesegment.o
MTX1                0x4               codesegment.o
macrointeger        0x4               codesegment.o
__osRdb_IP6_Ct      0x4               codesegment.o
closedist           0x4               codesegment.o
oldy                0x4               codesegment.o
FogColor            0x4               codesegment.o
numsubsectors       0x4               codesegment.o
movething           0x4               codesegment.o
frameSize           0x4               codesegment.o
sightzstart         0x4               codesegment.o
__osSiAccessQueue   0x18              codesegment.o
fp_wmd_file         0x4               codesegment.o
text_alpha_change_value
                    0x4               codesegment.o
macrocounter        0x4               codesegment.o
Passwordbuff        0x10              codesegment.o
rawloop             0x10              codesegment.o
SkyPicMount         0x4               codesegment.o
lines               0x4               codesegment.o
audio_heap          0x44800           audio_heap.o
sys_msgque_joy      0x18              codesegment.o
slidemo             0x4               codesegment.o

Memory Configuration

Name             Origin             Length             Attributes
*default*        0x0000000000000000 0xffffffffffffffff

Linker script and memory map

                0x0000000080000460                .=0x80000460

.code.text      0x0000000080000460    0x6d0d0
 codesegment.o(.text)
 .text          0x0000000080000460    0x69dc0 codesegment.o
                0x000000008005af74                skGetRandomKeyData
                0x00000000800566b0                __ll_lshift
                0x0000000080043fc4                __amDmaNew
                0x0000000080018abc                A_Chase
                0x0000000080050dd4                add_music_mute_note
                0x0000000080061930                __osRdbSend
                0x000000008001a270                A_SkullAttack
                0x0000000080063320                osDestroyThread
                0x000000008004f500                Eng_ResetIters
                0x000000008001f924                T_SequenceGlow
                0x0000000080065b8c                rdbs_query
                0x000000008001d080                P_GiveAmmo
                0x000000008003f6c0                W_Init
                0x000000008000faf8                M_LoadPakTicker
                0x00000000800143f0                P_ModifyLineFlags
                0x0000000080048b44                queue_wess_seq_update_type_special
                0x0000000080029ea8                P_LoadSegs
                0x0000000080063bd0                osPiWriteIo
                0x0000000080030de4                P_PlayerZMovement
                0x00000000800478cc                queue_wess_seq_pause
                0x00000000800067e4                G_CompleteLevel
                0x0000000080061fa0                bcmp
                0x0000000080056c10                osRecvMesg
                0x000000008002359c                P_TraverseIntercepts
                0x000000008003fba4                W_ReadLump
                0x000000008004b4ec                pan_mod_action
                0x0000000080066a90                osGetThreadId
                0x0000000080026fa0                P_SetupPsprites
                0x0000000080057fd0                osCreateViManager
                0x000000008006750c                _usb_device_set_status
                0x000000008004eab4                Eng_TrkOff
                0x0000000080068c30                __divdi3
                0x000000008004c6dc                wess_get_edt_size
                0x000000008001f26c                P_SpawnGlowingLight
                0x000000008004d0b4                CalcPartsPerInt
                0x000000008005ae08                skLaunch
                0x0000000080062ff0                __osSetCompare
                0x00000000800401c8                W_MapLumpLength
                0x000000008004b46c                volume_mod_action
                0x000000008003c030                ST_InitEveryLevel
                0x0000000080025138                P_UnsetThingPosition
                0x0000000080049a00                gethandleseq
                0x0000000080020608                P_TryMove
                0x0000000080003dc4                M_Random
                0x000000008003bc88                S_StartSound
                0x000000008005c350                osPfsFileState
                0x000000008002b8a4                P_LoadMacros
                0x0000000080030b70                P_Stop
                0x00000000800420cc                FUN_8002dad0
                0x000000008005abb0                __osPiCreateAccessQueue
                0x000000008005fbe8                alEnvmixerParam
                0x00000000800439d8                wess_work
                0x000000008001ba28                A_FadeIn
                0x0000000080059d34                __osDispatchThread
                0x000000008001c828                EV_BuildStairs
                0x000000008005e118                __osInitialize_kmc
                0x000000008002a918                P_LoadThings
                0x000000008003ff94                W_OpenMapWad
                0x0000000080048d34                wess_seq_type_status
                0x0000000080024148                P_RemoveMobj
                0x00000000800271f4                P_RecursiveSound
                0x000000008003b720                S_Error_Callback_Routine
                0x000000008004bc00                wess_handle_patchchg
                0x000000008004e7d8                Write_Vlq
                0x000000008005afac                skTest2
                0x00000000800239b8                P_SpawnMapThing
                0x0000000080014248                P_SpawnDelayTimer
                0x0000000080066bb0                __osPiRawWriteIo
                0x0000000080062450                _bzero
                0x000000008005e320                __osAiDeviceBusy
                0x000000008001b90c                A_SkullSetAlpha
                0x0000000080029d80                P_LoadVertexes
                0x0000000080040184                W_FreeMapLump
                0x000000008002a2a0                P_LoadSubSectors
                0x0000000080056704                __ll_div
                0x0000000080002548                D_memset
                0x000000008004d24c                init_WessTimer
                0x000000008000d1fc                M_FeaturesDrawer
                0x0000000080034bc8                R_AddSprite
                0x000000008004cf94                wess_engine_off
                0x000000008005d474                __osPfsRWInode
                0x0000000080018f60                A_XScream
                0x000000008000fe8c                M_LoadPakDrawer
                0x000000008004fb14                Eng_SeqJump
                0x0000000080058df0                __ptExceptionPreamble
                0x0000000080056758                __ull_divremi
                0x0000000080064140                __usbDevInterrupt
                0x0000000080016cd8                EV_CeilingCrushStop
                0x0000000080007da8                I_Main
                0x000000008003f2d4                D_CreditDrawer
                0x0000000080017e6c                P_CheckMissileRange
                0x00000000800441f0                SSP_SeqpNew
                0x000000008005458c                wess_seq_list_free
                0x000000008002da98                P_FindHighestCeilingSurrounding
                0x000000008003f060                D_Credits
                0x000000008002e820                P_AddSectorSpecial
                0x000000008004d4ac                data_read
                0x0000000080016e40                P_ThingHeightClip
                0x0000000080002214                AM_DrawThings
                0x0000000080011aa4                M_PasswordStart
                0x000000008003ff40                W_CacheLumpName
                0x0000000080051ee4                N64_PitchMod
                0x000000008000ce84                M_MenuTitleDrawer
                0x0000000080016628                EV_DoCeiling
                0x00000000800103b4                M_ControlPadTicker
                0x0000000080051008                wess_get_mute_release
                0x0000000080003200                LightGetHSV
                0x000000008000fa90                M_LoadPakStop
                0x000000008003faa8                W_GetNumForName
                0x000000008005ef4c                alRaw16Pull
                0x000000008004ed80                Eng_PitchMod
                0x000000008001baec                P_MissileAttack
                0x00000000800554e0                alSynAllocVoice
                0x000000008005b484                corrupted_init
                0x00000000800671e4                _usb_device_call_service
                0x0000000080019ac4                A_SpawnSmoke
                0x0000000080031854                P_CalcHeight
                0x0000000080061540                __assertBreak
                0x000000008003b760                S_Init
                0x00000000800449a8                wess_get_wmd_end
                0x0000000080028a60                A_FireShotgun2
                0x0000000080060424                alMainBusParam
                0x0000000080055220                _collectPVoices
                0x0000000080046798                __wess_seq_stopall
                0x000000008004ef34                Eng_NoteOff
                0x0000000080024500                P_SpawnMissile
                0x0000000080054890                wesssys_restore_ints
                0x00000000800068bc                G_RunGame
                0x0000000080052664                N64_PedalMod
                0x00000000800276dc                P_CheckAmmo
                0x0000000080026588                EV_DoPlat
                0x0000000080047694                trackstop
                0x0000000080057eb0                osViGetCurrentFramebuffer
                0x0000000080043ac0                __amHandleFrameMsg
                0x00000000800494fc                wess_copy_all_seq_num_active
                0x00000000800447d4                Register_Early_Exit
                0x000000008004a618                wess_handle_fade
                0x000000008005a710                __osDevMgrMain
                0x00000000800408c8                Z_Alloc2
                0x0000000080056350                guFrustumF
                0x000000008005e8e0                alLoadNew
                0x00000000800195a8                A_BspiAttack
                0x00000000800681b0                _usb_dci_vusb11_read_setup
                0x000000008004e9d0                Eng_DriverInit
                0x0000000080013f68                P_SetAimCamera
                0x000000008003bb8c                S_ResumeSound
                0x0000000080061188                _filterBuffer
                0x00000000800464d4                run_queue_wess_seq_stop_and_voiceramp
                0x000000008005af58                skKeepAlive
                0x0000000080063670                __osPiRawStartDma
                0x0000000080058de0                __osExceptionPreamble
                0x000000008004cde0                wess_set_error_callback
                0x0000000080040450                Z_InitZone
                0x000000008001f67c                P_SpawnStrobeAltFlash
                0x0000000080032b30                R_Init
                0x000000008000af64                M_SaveMenuData
                0x0000000080046420                wess_seq_stop
                0x00000000800630d0                __osSpSetStatus
                0x00000000800135f8                PB_BoxCrossLine
                0x00000000800197f4                A_SargAttack
                0x0000000080056694                __ull_div
                0x000000008004dbb8                get_track_volume_cntrl
                0x000000008000d960                M_ControlStickDrawer
                0x000000008004ed18                Eng_PatchChg
                0x0000000080002900                D_strncpy
                0x0000000080049c24                wess_handle_status
                0x000000008001b878                A_FadeAlpha
                0x000000008002baac                P_GroupLines
                0x000000008000b020                M_RestoreMenuData
                0x000000008005c4f0                osPfsFindFile
                0x0000000080052e40                N64_voicedecay
                0x0000000080053548                N64_NoteOff
                0x0000000080040cc0                Z_FreeTags
                0x000000008004907c                wess_seq_stoptype_and_voiceramp
                0x0000000080056d50                osSendMesg
                0x000000008004e3fc                queue_the_data
                0x0000000080056340                sqrtf
                0x000000008004f6ac                Eng_SeqTempo
                0x000000008005cc10                __osPfsGetStatus
                0x000000008001b600                A_BabyMetal
                0x0000000080000460                M_ClearBox
                0x0000000080006d40                IN_Start
                0x000000008003d6e8                ST_DrawString
                0x0000000080030204                P_StartButton
                0x000000008005ae24                skRecryptListValid
                0x0000000080067064                _usb_device_recv_data
                0x000000008005ea30                alAuxBusNew
                0x000000008005bc08                __osDumpInode
                0x00000000800635e0                __osSetGlobalIntMask
                0x000000008004c120                wess_handle_modumod
                0x000000008001c148                T_MoveFloor
                0x0000000080019f28                A_FatAttack1
                0x000000008004f3d4                Eng_ResetGates
                0x0000000080010318                M_CenterDisplayDrawer
                0x0000000080030424                P_RunThinkers
                0x0000000080042724                FUN_8002df14
                0x0000000080063480                osUnmapTLBAll
                0x000000008001f7e8                P_ModifySectorColor
                0x000000008005e82c                alEnvmixerNew
                0x000000008000680c                G_InitNew
                0x000000008005ac04                __osPiGetAccess
                0x000000008005eae8                alSaveNew
                0x00000000800575a0                osSetThreadPri
                0x00000000800630b0                __osSpGetStatus
                0x00000000800442a0                wess_set_tweaks
                0x0000000080056914                memcpy
                0x000000008004a348                wess_handle_stop
                0x0000000080014bb0                EV_SpawnMobjTemplate
                0x0000000080055208                __freeParam
                0x0000000080006d1c                G_RecordDemo
                0x000000008004bd84                queue_wess_handle_noteon
                0x000000008001b4fc                A_BarrelExplode
                0x0000000080030510                P_CheckCheats
                0x000000008003cd8c                ST_Message
                0x00000000800562a0                osVirtualToPhysical
                0x00000000800521e0                N64_ModuMod
                0x0000000080061db0                __osReadHost
                0x00000000800092d0                LongSwap
                0x000000008004d860                get_tracks_table
                0x00000000800046d0                F_Start
                0x0000000080050bc0                N64_set_output_rate
                0x00000000800602c0                alFilterNew
                0x00000000800577f0                osYieldThread
                0x0000000080054bf0                alHeapInit
                0x000000008000f094                M_SavePakStop
                0x00000000800254c0                PM_CheckPosition
                0x0000000080046110                wess_seq_status
                0x0000000080055270                _freePVoice
                0x000000008004bc54                wess_handle_noteon
                0x00000000800486b8                wess_seq_trigger_type_special
                0x0000000080017a70                EV_VerticalDoor
                0x000000008001011c                M_CenterDisplayTicker
                0x0000000080063c40                osPiReadIo
                0x00000000800065e4                G_PlayerFinishLevel
                0x000000008002e678                getSide
                0x0000000080024c70                P_TryMove2
                0x00000000800286c0                P_GunShot
                0x000000008004842c                queue_wess_seq_restartall
                0x0000000080009c18                I_WIPE_FadeOutScreen
                0x000000008004dc2c                get_voices_active_table
                0x0000000080050c54                N64_wdd_location
                0x0000000080051b60                N64_DriverEntry2
                0x000000008004480c                wess_install_handler
                0x000000008000ef38                M_SavePakStart
                0x000000008003e88c                D_DrawWarning
                0x0000000080017160                P_ChangeSector
                0x0000000080066ab0                __osPiRawReadIo
                0x000000008002c220                P_CheckSight
                0x0000000080014560                P_ModifyLineData
                0x000000008005ae40                skRecryptBegin
                0x000000008004e6f0                Read_Vlq
                0x000000008004c0a0                modu_mod_action
                0x0000000080027fe0                A_Saw
                0x000000008001b448                A_TargetCamera
                0x000000008000adc8                M_AlphaInOutTicker
                0x0000000080062ef0                __osGetCause
                0x00000000800496d8                wess_get_seq_type_active
                0x0000000080015158                T_MoveCamera
                0x0000000080053e04                wess_seq_loader_sizeof
                0x000000008004c050                wess_handle_zeromod
                0x0000000080004434                F_DrawerIntermission
                0x0000000080060e70                _loadBuffer
                0x0000000080024b60                P_ExplodeMissile
                0x0000000080035c10                R_RenderVoidSky
                0x0000000080001a88                AM_DrawSubsectors
                0x000000008002ccc0                P_Init
                0x0000000080035eb8                R_RenderClouds
                0x00000000800181f0                P_TryWalk
                0x000000008003aa34                R_RenderLaser
                0x0000000080044838                wess_restore_handler
                0x0000000080054cf0                alSynNew
                0x0000000080058830                osViSwapBuffer
                0x000000008003bdb4                S_AdjustSoundParams
                0x000000008005cd50                __osPfsSelectBank
                0x0000000080020590                P_CheckPosition
                0x00000000800618a0                osThreadProfileCallback
                0x00000000800553d0                alSynDelete
                0x0000000080027c50                A_CheckReload
                0x00000000800131b8                PB_SetThingPosition
                0x000000008002d83c                P_FindNextHighestFloor
                0x000000008005af90                skDumpVirage
                0x0000000080012b50                P_FloatChange
                0x000000008001f35c                T_LightFlash
                0x000000008005d8d0                __osContRamWrite
                0x00000000800642d0                __usbDevRead
                0x0000000080018908                A_Look
                0x0000000080021168                P_RadiusAttack
                0x0000000080008d94                I_ClearFrame
                0x0000000080042868                DecodeD64
                0x000000008001a6a4                A_PainAttack
                0x0000000080027580                P_BringUpWeapon
                0x0000000080026060                PM_BlockLinesIterator
                0x000000008004d454                get_num_Wess_Sound_Drivers
                0x000000008000a4b4                I_SavePakFile
                0x0000000080056a2c                rmonPrintf
                0x000000008003c0cc                ST_Ticker
                0x0000000080013d5c                PB_BlockThingsIterator
                0x0000000080055430                alSynFreeVoice
                0x000000008004c368                wess_handle_reverbmod
                0x0000000080030a10                P_Start
                0x000000008004aee8                wess_handle_advposition
                0x00000000800212e0                PTR_SlideTraverse
                0x000000008004ee04                Eng_ModuMod
                0x000000008005eb30                alAdpcmPull
                0x0000000080064604                __usbHwInit
                0x00000000800569d0                __osSyncVPrintf
                0x000000008005aecc                skVerifyHash
                0x0000000080031770                P_Thrust
                0x0000000080023700                P_SpawnMobj
                0x000000008004a650                wess_handle_resetposition
                0x0000000080030380                P_AddThinker
                0x0000000080057c74                __osSetTimerIntr
                0x00000000800650a0                dev_bus_suspend
                0x0000000080060a90                alFxParamHdl
                0x0000000080027d84                A_Raise
                0x00000000800483f4                run_queue_wess_seq_restartall
                0x000000008005b7e0                osPfsAllocateFile
                0x0000000080054400                wess_seq_list_sizeof
                0x0000000080056fa0                __osSetSR
                0x00000000800322a8                P_PlayerThink
                0x000000008001a0f0                A_FatAttack3
                0x00000000800284ec                A_FirePlasma
                0x00000000800675d0                _usb_device_stall_endpoint
                0x0000000080057690                osStartThread
                0x0000000080061ce0                osInitRdb
                0x00000000800197a0                A_TroopAttack
                0x000000008001956c                A_BspiFaceTarget
                0x000000008002ab40                P_LoadLineDefs
                0x0000000080059f80                osSetIntMask
                0x000000008004ede4                Eng_ZeroMod
                0x0000000080047880                run_queue_wess_seq_pause
                0x000000008001b63c                L_MissileHit
                0x0000000080021d28                PTR_ShootTraverse
                0x000000008003b9f8                S_SetSoundVolume
                0x0000000080014338                P_ExitLevel
                0x0000000080053890                load_sequence_data
                0x0000000080062f10                osGetCount
                0x0000000080069d10                __umoddi3
                0x000000008002ff30                P_ChangeSwitchTexture
                0x0000000080055ed0                osContInit
                0x000000008002dc10                P_FindLightFromLightTag
                0x0000000080024290                P_SpawnPuff
                0x000000008000f0f4                M_SavePakTicker
                0x000000008000aec0                M_FadeInStart
                0x000000008005ac70                osPiStartDma
                0x0000000080049148                queue_wess_seq_stoptype
                0x000000008004c708                wess_handle_set_edit_tracks
                0x0000000080048000                run_queue_wess_seq_pauseall
                0x000000008005280c                N64_ReverbMod
                0x000000008004a7d0                wess_track_gotoposition
                0x000000008005cdc0                __osSumcalc
                0x000000008004a094                wess_handle_play_track
                0x000000008004c298                wess_handle_pedalmod
                0x000000008004f88c                Eng_SeqGosub
                0x0000000080022b18                P_PathTraverse
                0x0000000080032ba4                R_RenderPlayerView
                0x00000000800502c4                Eng_TrkGosub
                0x0000000080062450                bzero
                0x0000000080035ac0                R_RederCloudSky
                0x000000008004ea34                Eng_DriverExit
                0x0000000080057cf4                __osInsertTimer
                0x0000000080003e18                M_ClearRandom
                0x0000000080019b1c                A_Tracer
                0x00000000800291d4                P_LaserCrossBSP
                0x00000000800370b4                R_CloudThunder
                0x00000000800697a0                __udivdi3
                0x000000008004804c                queue_wess_seq_pauseall
                0x0000000080059bb0                __osEnqueueAndYield
                0x0000000080004830                F_Stop
                0x0000000080047b1c                wess_seq_restart
                0x0000000080056640                __ull_rshift
                0x0000000080063080                __osSpDeviceBusy
                0x0000000080024818                P_SpawnPlayerMissile
                0x0000000080052ff8                N64_voicenote
                0x00000000800159bc                T_FadeInBrightness
                0x0000000080060c6c                _loadOutputBuffer
                0x000000008000a324                I_DeletePakFile
                0x000000008004ee6c                Eng_PanMod
                0x000000008005ea8c                alMainBusNew
                0x00000000800372d0                R_RenderAll
                0x0000000080061d68                osResetRdb
                0x0000000080050cc4                end_record_music_mute
                0x0000000080067448                _usb_device_get_status
                0x00000000800368e8                R_RenderFireSky
                0x00000000800684e0                _usb_dci_vusb11_get_endpoint_status
                0x0000000080020914                P_InterceptVector
                0x000000008001ff5c                T_LightMorph
                0x00000000800137e4                PB_CheckLine
                0x000000008001a474                A_PainShootSkull
                0x0000000080046da4                wess_delete_callback
                0x00000000800054d8                F_Drawer
                0x000000008004d27c                exit_WessTimer
                0x000000008001a724                A_PainDie
                0x0000000080022760                P_LineOpening
                0x0000000080047ea8                wess_seq_pauseall
                0x00000000800469d4                queue_wess_seq_stopall
                0x000000008005f2d0                alLoadParam
                0x00000000800519b8                N64_DriverEntry1
                0x0000000080002a78                D_strupr
                0x00000000800241b0                P_SetMobjState
                0x000000008003c3cc                ST_Drawer
                0x000000008004b3d4                pitch_mod_action
                0x0000000080068500                _usb_dci_vusb11_set_endpoint_status
                0x0000000080051110                TriggerN64Voice
                0x0000000080061018                _saveBuffer
                0x0000000080044864                wesssys_init
                0x00000000800222a0                P_AimLineAttack
                0x000000008003bb20                S_StopMusic
                0x00000000800567ec                __ll_mod
                0x000000008004eeb4                Eng_PedalMod
                0x000000008000932c                LittleShort
                0x000000008006447c                osBbUsbGetResetCount
                0x0000000080057220                osSpTaskYield
                0x0000000080019014                A_Fall
                0x000000008002bf6c                P_SetupLevel
                0x00000000800107d8                M_ControlPadDrawer
                0x000000008004d508                get_sequence_table
                0x00000000800529a8                N64_ChorusMod
                0x0000000080059d14                __osPopThread
                0x00000000800503a8                Eng_TrkJump
                0x0000000080040e88                Z_Touch
                0x000000008004eef4                Eng_ChorusMod
                0x000000008000299c                D_strncasecmp
                0x000000008004ea54                Eng_DriverEntry1
                0x0000000080056a70                osCreateMesgQueue
                0x0000000080057840                osGetTime
                0x0000000080055c20                osWritebackDCacheAll
                0x0000000080014d88                EV_FadeOutMobj
                0x0000000080002bd8                D_vsprintf
                0x0000000080032ab8                R_InitSprites
                0x000000008004c530                run_queue_wess_handle_parm_mod
                0x0000000080051c70                N64_TrkMute
                0x0000000080044acc                wess_size_module
                0x0000000080048af4                run_queue_wess_seq_update_type_special
                0x0000000080068318                _usb_dci_vusb11_bus_reset
                0x000000008004ef14                Eng_NoteOn
                0x00000000800521c0                N64_ZeroMod
                0x0000000080063120                __osSpRawStartDma
                0x0000000080063220                __osSiRawReadIo
                0x0000000080047ca4                queue_wess_seq_restart
                0x000000008004e610                wess_seq_fade
                0x000000008004d038                wess_enable
                0x0000000080015c14                T_MobjExplode
                0x0000000080018e98                A_Scream
                0x0000000080038a88                R_RenderSwitch
                0x000000008005cdec                __osIdCheckSum
                0x0000000080057f70                osViGetCurrentMode
                0x0000000080063fdc                osBbUsbSetCtlrModes
                0x00000000800252ec                P_SetThingPosition
                0x000000008005f69c                alAuxBusParam
                0x0000000080025910                PM_BoxCrossLine
                0x00000000800490f8                run_queue_wess_seq_stoptype_and_voiceramp
                0x000000008001556c                P_SetMovingCamera
                0x0000000080041014                Z_ChangeTag
                0x0000000080030c50                P_PlayerXYMovement
                0x0000000080013360                PB_CheckPosition
                0x000000008003ead0                D_LegalTicker
                0x00000000800074c0                IN_Drawer
                0x0000000080026c94                EV_StopPlat
                0x0000000080047714                wess_seq_pause
                0x000000008001f5c0                P_SpawnStrobeFlash
                0x00000000800446a8                wess_get_master_status
                0x000000008001d434                P_GiveWeapon
                0x000000008000938c                BigShort
                0x000000008001d73c                P_GivePower
                0x0000000080068a80                osMalloc
                0x000000008004113c                Z_DumpHeap
                0x0000000080052d3c                N64_voicerelease
                0x00000000800558b0                alSynSetPitch
                0x0000000080050ce8                do_record_music_unmute
                0x000000008001904c                A_Explode
                0x000000008004c2e8                reverb_mod_action
                0x00000000800125b8                P_MobjThinker
                0x0000000080044710                Is_Module_Loaded
                0x0000000080021440                P_SlideMove
                0x000000008005d7f0                __osContRamRead
                0x0000000080028278                A_FireMissile
                0x0000000080014f3c                P_SpawnQuake
                0x000000008003ed70                D_DrawNoPak
                0x00000000800602e0                alMainBusPull
                0x0000000080020a38                PIT_UseLines
                0x000000008002dd58                P_UpdateSpecials
                0x0000000080044024                __clearAudioDMA
                0x0000000080061fa0                _bcmp
                0x000000008002d688                P_FindLowestFloorSurrounding
                0x000000008004c488                wess_handle_parm_mod
                0x000000008002334c                P_InterceptLine
                0x00000000800295c0                T_LaserThinker
                0x00000000800544ac                wess_seq_list_load
                0x0000000080014384                P_SecretExitLevel
                0x000000008001b974                A_FadeOut
                0x000000008000705c                IN_Stop
                0x000000008002d9bc                P_FindLowestCeilingSurrounding
                0x0000000080035cf4                R_RenderEvilSky
                0x0000000080050458                Eng_TrkRet
                0x0000000080066d10                _usb_device_init
                0x0000000080059f60                __osRestoreInt
                0x000000008005af3c                skExit
                0x000000008004beac                noteoff_action
                0x00000000800635d0                __osViGetCurrentContext
                0x0000000080058760                osViSetYScale
                0x000000008004cf74                wess_free
                0x000000008002d614                getNextSector
                0x0000000080008a08                I_GetControllerData
                0x0000000080020388                P_CombineLightSpecials
                0x0000000080004874                F_Ticker
                0x0000000080054198                wess_seq_sizeof
                0x00000000800457e0                filltrackstat
                0x000000008001824c                P_NewChaseDir
                0x0000000080004120                F_StartIntermission
                0x000000008002b16c                P_LoadBlockMap
                0x0000000080068860                _usb_bdt_copy_swab
                0x00000000800191b0                A_PosAttack
                0x000000008001bdd0                T_MovePlane
                0x00000000800285f8                P_BulletSlope
                0x00000000800583a0                osViSetMode
                0x0000000080033578                R_PointOnSide
                0x00000000800642d8                __usbDevWrite
                0x000000008005ac40                __osPiRelAccess
                0x00000000800668b0                osCreateRegion
                0x0000000080026250                T_PlatRaise
                0x000000008001f4e8                T_StrobeFlash
                0x000000008004ff20                Eng_SeqEnd
                0x000000008004c1c4                wess_handle_panmod
                0x0000000080047060                queue_wess_master_sfx_vol_set
                0x0000000080055950                alSynSetVol
                0x0000000080026b64                P_ActivateInStasis
                0x0000000080055a20                alSynSetPan
                0x000000008000eb28                M_ControllerPakDrawer
                0x0000000080055710                alSynStopVoice
                0x00000000800566e8                __ll_rem
                0x0000000080029120                A_BFGsound
                0x0000000080048728                updatetrackstat
                0x0000000080056678                __ull_rem
                0x000000008003297c                R_InitTextures
                0x0000000080013af8                PB_CheckThing
                0x000000008004b5d4                tracksetspecial
                0x000000008004f62c                Eng_WriteIterBox
                0x000000008000d778                M_VolumeDrawer
                0x000000008005f6d0                alEnvmixerPull
                0x0000000080055654                _allocatePVoice
                0x000000008003bad4                S_StartMusic
                0x0000000080059d2c                __osNop
                0x000000008005b740                osPfsInit
                0x0000000080017718                EV_DoDoor
                0x0000000080042f24                milli_to_param
                0x0000000080020318                T_Combine
                0x000000008005ca10                osPfsFreeBlocks
                0x000000008005c690                osPfsIsPlug
                0x0000000080028ca8                A_FireCGun
                0x00000000800283b8                A_FireBFG
                0x000000008002f9c0                P_StartMacro
                0x0000000080007c80                I_Start
                0x000000008004e4d0                unqueue_the_data
                0x0000000080022a10                P_BlockThingsIterator
                0x000000008005b5d8                corrupted
                0x000000008000a594                I_ReadPakFile
                0x00000000800547c4                wess_seq_range_free
                0x0000000080061240                _doModFunc
                0x000000008001573c                P_SetLightFactor
                0x0000000080020fa4                PIT_RadiusAttack
                0x000000008004ce90                wess_decomp
                0x0000000080035198                R_RenderBSPNodeNoClip
                0x00000000800093ec                I_MoveDisplay
                0x0000000080059ab8                send_mesg
                0x0000000080052ad8                N64_voiceparmoff
                0x0000000080031b34                P_MovePlayer
                0x0000000080065eb0                _Ldtob
                0x0000000080059cc8                __osEnqueueThread
                0x0000000080068b20                osFree
                0x000000008004cf4c                wess_malloc
                0x000000008003eb48                D_DrawLegal
                0x00000000800193b8                A_PlayAttack
                0x0000000080068044                _usb_dci_vusb11_submit_BDT
                0x0000000080058620                osViSetXScale
                0x0000000080011b20                M_PasswordTicker
                0x00000000800306f4                P_Ticker
                0x0000000080065c10                rdbs_device_init
                0x000000008005df04                __osInitialize_autodetect
                0x000000008001f018                P_SpawnFireFlicker
                0x00000000800448e4                wesssys_exit
                0x00000000800493bc                wess_get_seq_num_active
                0x0000000080043cfc                __amDMA
                0x0000000080058300                osViSetEvent
                0x00000000800475e0                wess_pan_mode_set
                0x0000000080022470                P_LineAttack
                0x0000000080057a98                __osTimerInterrupt
                0x000000008005aeb0                skSignHash
                0x00000000800070f0                IN_Ticker
                0x0000000080066ee4                _usb_device_init_endpoint
                0x00000000800261a4                PM_BlockThingsIterator
                0x00000000800564c0                __sinf
                0x000000008000f508                M_SavePakDrawer
                0x000000008004e368                queue_the_function
                0x000000008005af20                skSetLimit
                0x0000000080063a20                __osEPiRawWriteIo
                0x0000000080004308                F_TickerIntermission
                0x0000000080014890                P_ModifySector
                0x0000000080009254                I_GetScreenGrab
                0x00000000800066bc                G_PlayerReborn
                0x00000000800140d4                EV_SpawnTrapMissile
                0x000000008004bf2c                wess_handle_noteoff
                0x00000000800637c0                osPiGetCmdQueue
                0x000000008004ce64                wess_set_decomp_callback
                0x0000000080057df0                __osProbeTLB
                0x00000000800546dc                wess_seq_range_load
                0x000000008004df84                get_voices_handle_table
                0x00000000800444b8                wess_get_tweaks
                0x000000008002e714                getSector
                0x000000008002eaa8                P_UseSpecialLine
                0x0000000080031124                P_BuildMove
                0x000000008000b340                M_MenuTicker
                0x00000000800363bc                R_RenderSkyPic
                0x000000008004f0f8                Eng_GateJump
                0x0000000080000d2c                AM_Drawer
                0x000000008004b56c                wess_track_parm_mod
                0x000000008000a11c                I_CheckControllerPak
                0x0000000080059ee0                __osCleanupThread
                0x0000000080014688                P_ModifyLineTexture
                0x000000008000ce60                M_MenuClearCall
                0x0000000080015d80                P_Telefrag
                0x000000008002ce8c                P_SpawnSpecials
                0x0000000080043330                amCreateAudioMgr
                0x000000008005245c                N64_PanMod
                0x0000000080047610                trackstart
                0x0000000080027c84                A_Lower
                0x000000008004e8c8                Len_Vlq
                0x000000008005e300                __osInitialize_emu
                0x00000000800620f0                bcopy
                0x000000008001b588                A_Hoof
                0x0000000080054ba0                alLink
                0x00000000800612d0                alSavePull
                0x000000008005cb10                osPfsNumFiles
                0x0000000080050fdc                wess_set_mute_release
                0x0000000080027ea4                A_Punch
                0x0000000080048a84                wess_seq_update_type_special
                0x000000008002287c                P_BlockLinesIterator
                0x0000000080017da0                P_CheckMeleeRange
                0x000000008001ce60                EV_SplitSector
                0x000000008001b8d8                A_PainDeathEvent
                0x0000000080061f64                osBbReadHost
                0x0000000080028478                A_PlasmaAnimate
                0x000000008003f968                W_CheckNumForName
                0x0000000080027680                P_DropWeapon
                0x0000000080003d70                P_Random
                0x00000000800307d0                P_Drawer
                0x000000008004a210                wess_handle_set_special
                0x0000000080045bb4                assigntrackstat
                0x00000000800685c0                _usb_dci_vusb11_unstall_endpoint
                0x0000000080057240                osSpTaskYielded
                0x0000000080034554                R_AddLine
                0x0000000080067738                _usb_dci_vusb11_isr
                0x000000008005ae5c                skRecryptData
                0x0000000080026ea8                P_RemoveActivePlat
                0x0000000080053f20                wess_seq_loader_init
                0x000000008005e9a0                alResampleNew
                0x0000000080063400                osGetThreadPri
                0x000000008004a0d8                wess_handle_get_special
                0x0000000080061440                osInvalICache
                0x00000000800482b8                wess_seq_restartall
                0x0000000080056ea0                osSetEventMesg
                0x0000000080064100                __usb_splx
                0x0000000080019700                A_TroopMelee
                0x000000008004bfd0                zero_mod_action
                0x000000008000590c                BufferedDrawSprite
                0x000000008002877c                A_FirePistol
                0x0000000080033e34                R_CheckBBox
                0x0000000080051b80                N64_DriverEntry3
                0x00000000800650ec                _usb_device_state_machine
                0x000000008003e5e0                ST_DebugSetPrintPos
                0x000000008004ed60                Eng_PatchMod
                0x0000000080065c80                _Litob
                0x00000000800553e0                alSynAddPlayer
                0x0000000080055ad0                alSynAllocFX
                0x0000000080017270                T_VerticalDoor
                0x000000008005bd80                osPfsDeleteFile
                0x000000008004bf7c                wess_handle_pitchmod
                0x000000008004ef54                Eng_StatusMark
                0x000000008002c70c                PS_CrossSubsector
                0x0000000080062450                _blkclr
                0x00000000800620f0                _bcopy
                0x0000000080040c38                Z_Free2
                0x0000000080006be0                G_PlayDemoPtr
                0x000000008002db6c                P_FindSectorFromLineTag
                0x000000008001d6c0                P_GiveCard
                0x0000000080057390                __osSiCreateAccessQueue
                0x0000000080013e10                T_AimCamera
                0x000000008005381c                close_sequence_data
                0x0000000080016370                T_MoveCeiling
                0x0000000080011314                M_DecodePassword
                0x0000000080066a60                __osSiDeviceBusy
                0x0000000080054630                wess_seq_range_sizeof
                0x000000008004cf14                wess_low_level_init
                0x0000000080007ba4                FixedMul
                0x00000000800672a0                _usb_device_send_data
                0x000000008004c218                pedal_mod_action
                0x000000008003bc08                S_StopAll
                0x00000000800142c0                T_CountdownTimer
                0x0000000080054870                wesssys_disable_ints
                0x0000000080046f7c                wess_master_mus_volume_get
                0x0000000080046998                run_queue_wess_seq_stopall_and_voiceramp
                0x0000000080016f58                PIT_ChangeSector
                0x000000008004cfe0                wess_disable
                0x000000008005add0                skGetId
                0x0000000080057a40                __osTimerServicesInit
                0x0000000080028230                A_ChainSawReady
                0x0000000080055cd8                osContGetReadData
                0x0000000080042df0                wess_memfill
                0x0000000080055030                alAudioFrame
                0x0000000080048ea8                __wess_seq_stoptype
                0x000000008005cc38                __osPfsRequestOneChannel
                0x0000000080018f94                A_Pain
                0x000000008005db20                __osInitialize_common
                0x0000000080060628                alResampleParam
                0x0000000080027464                P_SetPsprite
                0x0000000080015aec                P_AlertTaggedMobj
                0x000000008005646c                guFrustum
                0x0000000080002b04                D_strlen
                0x0000000080046904                wess_seq_stopall
                0x00000000800632b0                __osSiRawWriteIo
                0x00000000800548b0                osAiGetLength
                0x00000000800410b8                Z_FreeMemory
                0x000000008004a498                wess_handle_fastsettempo
                0x0000000080055b70                osInvalDCache
                0x000000008000964c                I_WIPE_MeltScreen
                0x00000000800606f0                alFxPull
                0x00000000800139b4                PB_BlockLinesIterator
                0x000000008004fd54                Eng_SeqRet
                0x0000000080019920                A_CyberAttack
                0x00000000800288d8                A_FireShotgun
                0x000000008003bbb8                S_StopSound
                0x000000008005cccc                __osPfsGetOneChannelData
                0x0000000080016204                EV_SilentTeleport
                0x00000000800230f8                PIT_AddThingIntercepts
                0x0000000080002490                D_memmove
                0x00000000800156dc                P_RefreshBrightness
                0x000000008005bf10                __osPfsReleasePages
                0x000000008003ef9c                D_SplashScreen
                0x0000000080056ac0                osJamMesg
                0x00000000800630f0                __osSpSetPc
                0x0000000080049f9c                wess_handle_play
                0x00000000800504e4                Eng_TrkEnd
                0x000000008003ba64                S_SetMusicVolume
                0x000000008004eed4                Eng_ReverbMod
                0x0000000080057f10                osViGetNextFramebuffer
                0x000000008004ab58                wess_track_setposition
                0x0000000080059b78                handle_CpU
                0x0000000080007cf4                I_IdleGameThread
                0x000000008004bd08                run_queue_wess_handle_noteon
                0x00000000800343fc                R_Subsector
                0x00000000800472bc                wess_master_mus_vol_set
                0x0000000080056a00                osSyncPrintf
                0x0000000080054b40                alInit
                0x000000008004474c                Is_Seq_Num_Valid
                0x0000000080058eb4                __osException
                0x0000000080063620                __osResetGlobalIntMask
                0x00000000800446d4                Is_System_Active
                0x0000000080056078                __osContGetInitData
                0x00000000800557a0                alSynStartVoiceParams
                0x000000008004e528                process_function_queue
                0x0000000080052c44                N64_voicemuterelease
                0x0000000080019974                A_CyberDeathEvent
                0x0000000080056f70                __osGetFpcCsr
                0x0000000080033858                R_PointToAngle2
                0x000000008002fbd0                P_ToggleMacros
                0x0000000080057290                __osSiRawStartDma
                0x0000000080065b0c                rdbs_ch9Vendor
                0x00000000800403f0                Z_Init
                0x0000000080011ae8                M_PasswordStop
                0x0000000080061410                alCopy
                0x000000008004c650                wess_handle_free_edit_space
                0x000000008003736c                R_RenderWorld
                0x00000000800207a4                P_CheckUseHeight
                0x00000000800617c4                kdebugserver
                0x0000000080054a60                osAiSetNextBuffer
                0x00000000800441ac                wess_exit
                0x000000008004b1f0                wess_handle_getposition
                0x0000000080064020                osBbUsbInit
                0x000000008006865c                _usb_dci_vusb11_cancel_transfer
                0x000000008000daf4                M_DisplayDrawer
                0x000000008005e400                alFxNew
                0x0000000080059ef0                __osDisableInt
                0x000000008004d19c                WessInterruptHandler
                0x000000008004d378                module_seek
                0x00000000800506b0                SeqEngine
                0x00000000800634d0                __osViInit
                0x0000000080040500                Z_SetAllocBase
                0x0000000080039200                R_RenderPlane
                0x000000008003e6d0                D_RunDemo
                0x0000000080046968                run_queue_wess_seq_stopall
                0x0000000080061f0c                osReadHost
                0x000000008003e774                D_TitleMap
                0x0000000080046494                run_queue_wess_seq_stop
                0x00000000800542bc                wess_seq_load
                0x000000008002a3d0                P_LoadSectors
                0x00000000800552f8                _timeToSamples
                0x0000000080060054                _ldexpf
                0x0000000080051034                WessCents2Ratio
                0x0000000080008820                I_Error
                0x0000000080046284                __wess_seq_stop
                0x000000008004d42c                module_close
                0x0000000080046458                wess_seq_stop_and_voiceramp
                0x000000008005370c                wess_seq_loader_count
                0x0000000080066f98                _usb_device_get_transfer_status
                0x000000008001fd58                P_UpdateLightThinker
                0x000000008006700c                _usb_device_read_setup_data
                0x00000000800673e0                _usb_device_unstall_endpoint
                0x000000008000dd4c                M_DrawBackground
                0x00000000800561e4                __osPackRequestData
                0x000000008004d3fc                module_tell
                0x000000008004cfb8                wess_engine_on
                0x000000008005da80                __createSpeedParam
                0x0000000080051ec4                N64_PatchMod
                0x000000008004ea94                Eng_DriverEntry3
                0x000000008001a7b0                A_RectChase
                0x0000000080056940                sprintf
                0x000000008004c764                wess_handle_create_edit_space
                0x0000000080058d30                __osError
                0x0000000080055ac0                alSynSetPriority
                0x000000008001b940                A_MissileSetAlpha
                0x000000008002c120                P_CheckSights
                0x000000008001cc00                T_MoveSplitPlane
                0x0000000080019880                A_HeadAttack
                0x000000008002ca44                PS_CrossBSPNode
                0x0000000080049b9c                wess_handle_get
                0x0000000080029198                A_CloseShotgun2
                0x0000000080029744                A_FireLaser
                0x000000008000a9a4                M_ControllerPak
                0x0000000080056720                __ll_mul
                0x0000000080050690                Eng_NullEvent
                0x000000008004c170                wess_handle_volumemod
                0x000000008005ce34                __osRepairPackId
                0x00000000800640c0                __usb_splhigh
                0x0000000080046934                wess_seq_stopall_and_voiceramp
                0x000000008002fc70                P_RunMacros
                0x000000008003830c                R_RenderWall
                0x000000008003d988                ST_GetCenterTextX
                0x0000000080025b08                PIT_CheckLine
                0x0000000080052200                N64_VolumeMod
                0x0000000080012008                M_PasswordDrawer
                0x000000008003de9c                ST_DrawSymbol
                0x0000000080042f80                wess_init
                0x000000008003dbdc                ST_UpdateFlash
                0x000000008002d764                P_FindHighestFloorSurrounding
                0x00000000800337dc                SlopeDiv
                0x000000008003d424                ST_DrawNumber
                0x000000008000ad64                M_AlphaInStart
                0x00000000800536d0                wess_seq_loader_install_error_handler
                0x0000000080008a38                I_CheckGFX
                0x000000008004ea74                Eng_DriverEntry2
                0x0000000080008498                I_Init
                0x00000000800279e8                P_FireWeapon
                0x0000000080014fb0                P_RandomLineTrigger
                0x000000008000e510                M_DrawOverlay
                0x00000000800688c0                ldiv
                0x0000000080023f34                P_SpawnPlayer
                0x0000000080003e44                MiniLoop
                0x00000000800571f4                osSpTaskStartGo
                0x0000000080027a8c                A_WeaponReady
                0x000000008001ef70                T_FireFlicker
                0x0000000080040530                Z_Malloc2
                0x00000000800273d0                P_NoiseAlert
                0x0000000080040370                W_GetMapLump
                0x000000008004e688                wess_seq_segue
                0x0000000080026dfc                P_AddActivePlat
                0x0000000080047354                queue_wess_master_mus_vol_set
                0x0000000080024378                P_SpawnBlood
                0x000000008002fdcc                P_RestartMacro
                0x0000000080019608                A_SpidRefire
                0x0000000080012c74                P_ZMovement
                0x000000008001d5a8                P_GiveBody
                0x000000008002a698                P_LoadNodes
                0x00000000800613d0                alSaveParam
                0x0000000080012764                P_XYMovement
                0x000000008001fbf4                P_SpawnSequenceLight
                0x00000000800564c0                sinf
                0x000000008001a430                PIT_PainCheckLine
                0x0000000080065190                __osRdb_Usb_GetAvailSendBytes
                0x000000008001e960                P_DamageMobj
                0x000000008001a894                A_RectGroundFire
                0x000000008005c804                __osPfsRequestData
                0x000000008003ed24                D_NoPakTicker
                0x0000000080019eec                A_FatRaise
                0x000000008001b34c                A_RectTracer
                0x000000008004b074                wess_handle_setposition
                0x00000000800681f4                _usb_dci_vusb11_submit_transfer
                0x000000008002c4e4                PS_SightCrossLine
                0x0000000080025d6c                PIT_CheckThing
                0x0000000080062450                blkclr
                0x0000000080002690                D_memcpy
                0x0000000080033b40                R_BSP
                0x000000008001a00c                A_FatAttack2
                0x000000008005ffa0                _frexpf
                0x000000008004497c                wess_get_wmd_start
                0x0000000080020c68                P_UseLines
                0x00000000800328a0                R_InitData
                0x000000008006893c                lldiv
                0x0000000080019088                A_OnDeathTrigger
                0x00000000800551dc                __allocParam
                0x0000000080045c48                wess_seq_structrig
                0x0000000080033c68                R_RenderBSPNode
                0x0000000080044f1c                wess_load_module
                0x000000008001f728                EV_StartLightStrobing
                0x000000008005c048                osPfsReadWriteFile
                0x0000000080041ed0                L8002d990
                0x000000008004d4e0                data_close
                0x000000008005a2d0                __osEPiRawStartDma
                0x0000000080001d44                AM_DrawLine
                0x000000008004b95c                trackgetspecial
                0x0000000080067620                _usb_dci_vusb11_init
                0x000000008001f44c                P_SpawnLightFlash
                0x000000008001b5c4                A_Metal
                0x000000008005b020                osPfsChecker
                0x0000000080018db4                A_FaceTarget
                0x0000000080027e24                A_GunFlash
                0x0000000080003bb0                D_DoomMain
                0x0000000080047024                run_queue_wess_master_sfx_vol_set
                0x000000008004b33c                patch_chg_action
                0x000000008003f0d4                D_CreditTicker
                0x000000008003bc34                S_SoundStatus
                0x000000008001e5b8                P_KillMobj
                0x0000000080051ba0                N64_TrkOff
                0x0000000080016ba8                P_ActivateInStasisCeiling
                0x00000000800637f0                __osEPiRawReadIo
                0x00000000800004c4                M_AddToBox
                0x00000000800460a4                wess_seq_trigger_special
                0x000000008003bfc0                ST_Init
                0x0000000080039980                R_RenderThings
                0x00000000800578f0                osSetTimer
                0x0000000080042ba0                DecodeJaguar
                0x0000000080046f30                wess_master_sfx_volume_get
                0x000000008004d2c8                module_open
                0x0000000080031fbc                P_PlayerInSpecialSector
                0x00000000800336d4                R_PointInSubsector
                0x00000000800422b0                FUN_8002dc0c
                0x0000000080003620                LightGetRGB
                0x0000000080024fcc                P_PointOnLineSide
                0x000000008002b3a4                P_LoadLeafs
                0x000000008001d900                P_TouchSpecialThing
                0x0000000080031c58                P_DeathThink
                0x0000000080010b20                M_EncodePassword
                0x000000008004e2e0                queue_memcpy
                0x0000000080007ac0                FixedDiv
                0x00000000800303dc                P_RemoveThinker
                0x0000000080053794                open_sequence_data
                0x0000000080060450                alResamplePull
                0x0000000080063420                osMapTLBRdb
                0x000000008002016c                P_DoSectorLightChange
                0x00000000800226c0                P_AproxDistance
                0x000000008004d2a0                Wess_init_for_LoadFileData
                0x000000008004c3b8                chorus_mod_action
                0x000000008005d238                __osGetId
                0x000000008005a030                osCreatePiManager
                0x000000008005d3b4                __osCheckId
                0x0000000080046c30                wess_register_callback
                0x000000008004d310                module_read
                0x000000008001ab4c                A_RectMissile
                0x0000000080015a40                P_ModifyMobjFlags
                0x000000008000a890                M_RunTitle
                0x0000000080016ab8                P_RemoveActiveCeiling
                0x000000008004466c                wess_install_error_handler
                0x000000008005687c                __ll_rshift
                0x0000000080060a7c                alFxParam
                0x000000008004c438                wess_handle_chorusmod
                0x0000000080057450                osCreateThread
                0x000000008005023c                Eng_TrkTempo
                0x0000000080055c50                osContStartReadData
                0x000000008002fabc                P_SuspendMacro
                0x000000008004c5a4                queue_wess_handle_parm_mod
                0x0000000080006550                G_DoLoadLevel
                0x00000000800270a0                P_MovePsprites
                0x0000000080058bf0                osViBlack
                0x0000000080046fc8                wess_master_sfx_vol_set
                0x0000000080053388                N64_NoteOn
                0x000000008005ae78                skRecryptComputeState
                0x0000000080049818                wess_copy_all_seq_type_active
                0x0000000080015ef0                EV_Teleport
                0x000000008005afc8                skTest3
                0x000000008004023c                W_MapGetNumForName
                0x0000000080014aa4                T_FadeThinker
                0x000000008006843c                _usb_dci_vusb11_init_endpoint
                0x000000008000f970                M_LoadPakStart
                0x0000000080051e60                N64_PatchChg
                0x0000000080018678                P_LookForPlayers
                0x000000008004d47c                data_open
                0x0000000080028f2c                A_BFGFlash
                0x000000008004d090                GetIntsPerSec
                0x0000000080069210                __moddi3
                0x0000000080019a10                A_BruisAttack
                0x00000000800548d0                osAiSetFrequency
                0x000000008004ce0c                wess_error_callback
                0x000000008002b334                P_LoadReject
                0x00000000800358ac                R_RenderSpaceSky
                0x0000000080054164                wess_seq_loader_exit
                0x000000008002915c                A_LoadShotgun2
                0x0000000080066e30                _usb_device_register_service
                0x000000008005af04                skAdvanceTicketWindow
                0x000000008002b698                P_LoadLights
                0x0000000080062510                _Printf
                0x00000000800005d4                AM_Control
                0x000000008000e780                M_ScreenTicker
                0x000000008004e64c                wess_seq_fadeall
                0x0000000080012450                P_RunMobjBase
                0x000000008001b2a4                A_MoveGroundFire
                0x00000000800614c0                osWritebackDCache
                0x000000008003f60c                D_OpenControllerPak
                0x000000008001d63c                P_GiveArmor
                0x000000008001c268                EV_DoFloor
                0x0000000080054bc0                alUnlink
                0x0000000080023004                PIT_AddLineIntercepts
                0x00000000800568f0                strlen
                0x0000000080049044                wess_seq_stoptype
                0x00000000800650f4                __usb_arc_device_setup
                0x0000000080056f90                __osSetFpcCsr
                0x000000008003bb5c                S_PauseSound
                0x0000000080046524                queue_wess_seq_stop
                0x00000000800353e0                R_SetupSky
                0x0000000080048650                wess_seq_trigger_type
                0x0000000080046070                wess_seq_trigger
                0x0000000080057420                __osSiRelAccess
                0x000000008005ae94                skRecryptEnd
                0x000000008004c6b0                wess_get_edt_start
                0x0000000080053738                Is_Seq_Seq_Num_Valid
                0x0000000080058e10                __ptException
                0x000000008003ae00                R_RenderPSprites
                0x000000008005b000                skValidateRls
                0x0000000080056310                __assert
                0x00000000800200c0                P_ChangeLightByTag
                0x0000000080049e4c                wess_handle_play_special
                0x000000008004cf30                wess_low_level_exit
                0x00000000800090b8                I_DrawFrame
                0x000000008005708c                osSpTaskLoad
                0x0000000080014e88                T_Quake
                0x0000000080037980                R_WallPrep
                0x0000000080047318                run_queue_wess_master_mus_vol_set
                0x00000000800568c0                strchr
                0x000000008005d704                __osDumpId
                0x0000000080058460                osViSetSpecialFeatures
                0x000000008002afa4                P_LoadSideDefs
                0x0000000080017fd8                P_Move
                0x0000000080012e48                PB_TryMove
                0x00000000800529c8                N64_voiceon
                0x0000000080056f80                __osGetSR
                0x000000008005e350                _init_lpfilter
                0x0000000080051998                N64_DriverExit
                0x0000000080016a0c                P_AddActiveCeiling
                0x0000000080066c30                __osBbDelay
                0x0000000080007c00                FixedDiv2
                0x000000008003e61c                ST_DebugPrint
                0x000000008003e820                D_WarningTicker
                0x0000000080019290                A_SPosAttack
                0x0000000080058c60                guMtxIdentF
                0x00000000800005a0                AM_Start
                0x00000000800475b4                wess_pan_mode_get
                0x000000008004ee24                Eng_VolumeMod
                0x000000008005c8a4                __osPfsGetInitData
                0x0000000080049cd4                wess_handle_return
                0x0000000080066ce0                _usb_device_cancel_transfer
                0x000000008001f09c                T_Glow
                0x000000008004f254                Eng_IterJump
                0x00000000800588e0                __osViSwapContext
                0x000000008001b7b4                L_SkullBash
                0x000000008002e7b4                twoSided
                0x000000008002dcac                P_ActivateLineByTag
                0x0000000080049aa4                gethandletrk
                0x00000000800219c0                PTR_AimTraverse
                0x0000000080042e70                wess_rom_copy
                0x0000000080058cc0                guMtxF2L
                0x000000008005f5c0                alAuxBusPull
                0x0000000080040eec                Z_CheckZone
                0x0000000080054b70                alClose
                0x0000000080054c30                alHeapDBAlloc
                0x0000000080047c6c                run_queue_wess_seq_restart
                0x000000008005aee8                skGetConsumption
                0x00000000800194c8                A_CPosRefire
                0x0000000080027ba8                A_ReFire
                0x000000008005e250                __checkHardware_kmc
                0x000000008004ecf8                Eng_TrkMute
                0x00000000800490b8                run_queue_wess_seq_stoptype
                0x0000000080049fd0                wess_handle_play_track_special
                0x0000000080044a38                wess_unload_module
                0x0000000080030fb4                P_PlayerMobjThink
                0x000000008000ad94                M_AlphaOutStart
                0x00000000800042cc                F_StopIntermission
                0x0000000080002b60                mystrlen
                0x00000000800573e4                __osSiGetAccess
                0x000000008000af08                M_FadeOutStart
                0x0000000080051528                N64_DriverInit
                0x000000008000b0ec                M_MenuGameDrawer
                0x0000000080013018                PB_UnsetThingPosition
                0x0000000080050c80                start_record_music_mute
                0x000000008005d100                __osCheckPackId
                0x000000008001b3ac                A_RectDeathEvent
                0x0000000080028f64                A_BFGSpray
                0x000000008005afe4                skResetWindow
                0x000000008003fdd4                W_CacheLumpNum
                0x000000008003fb1c                W_LumpLength
                0x000000008005435c                wess_seq_free
                0x0000000080007dd8                I_SystemTicker
                0x00000000800577b0                __osDequeueThread
                0x0000000080044264                __wessVoiceHandler
                0x000000008000ac78                M_ButtonResponder
                0x000000008005adec                skLaunchSetup
                0x0000000080062f00                __osSetWatchLo
                0x000000008000a6ec                I_CreatePakFile
                0x000000008005baf0                __osPfsDeclearPage
 /home/jhynjhiruu/ique_root/usr/lib/PR/rspboot.o(.text)
 .text          0x000000008006a220       0xd0 /home/jhynjhiruu/ique_root/usr/lib/PR/rspboot.o
                0x000000008006a2f0                rspbootTextEnd
                0x000000008006a220                rspbootTextStart
 /home/jhynjhiruu/ique_root/usr/lib/PR/gspF3DEX.NoN.fifo.o(.text)
 .text          0x000000008006a2f0     0x1430 /home/jhynjhiruu/ique_root/usr/lib/PR/gspF3DEX.NoN.fifo.o
                0x000000008006a2f0                gspF3DEX_NoN_fifoTextStart
                0x000000008006b720                gspF3DEX_NoN_fifoTextEnd
 /home/jhynjhiruu/ique_root/usr/lib/PR/gspL3DEX.fifo.o(.text)
 .text          0x000000008006b720      0xff0 /home/jhynjhiruu/ique_root/usr/lib/PR/gspL3DEX.fifo.o
                0x000000008006b720                gspL3DEX_fifoTextStart
                0x000000008006c710                gspL3DEX_fifoTextEnd
 /home/jhynjhiruu/ique_root/usr/lib/PR/aspMain.o(.text)
 .text          0x000000008006c710      0xe20 /home/jhynjhiruu/ique_root/usr/lib/PR/aspMain.o
                0x000000008006d530                aspMainTextEnd
                0x000000008006c710                aspMainTextStart
                0x000000008006d530                .code.text.keep=L(.)

.code.data      0x000000008006d530    0x19150
 codesegment.o(.data)
 .data          0x000000008006d530    0x12b80 codesegment.o
                0x000000008008003c                inbuf
                0x000000008007e390                wess_driver_dma_buffer_length
                0x000000008007a78c                sprites
                0x000000008007bcb0                symboldata
                0x000000008007fda0                __osRdb_Usb_Active
                0x000000008008004c                __osRdb_DbgRead_Buf
                0x000000008007e520                drv_cmds
                0x000000008007b000                Pak_Table
                0x000000008007e430                DrvFunctions
                0x000000008007facc                __osShutdown
                0x000000008007bb20                R_ModelMatrix
                0x000000008007e590                alGlobals
                0x000000008007ad80                endcluster6
                0x000000008007e308                curAcmdList
                0x000000008007b514                enable_messages
                0x000000008007c2c0                card_x
                0x000000008007b3f8                Menu_DeleteNote
                0x000000008007e5f0                __osTimerList
                0x000000008007b2cc                Menu_Options
                0x000000008007fa70                __osCurrentHandle
                0x000000008007e3b8                wess_driver_max_trks_per_seq
                0x000000008007b344                Menu_ControlStick
                0x000000008007b12c                FilesUsed
                0x000000008007fa50                __osPiDevMgr
                0x000000008007f7bc                __os_error_message
                0x000000008007e3b4                wess_driver_callbacks
                0x0000000080080054                __osRdb_DbgRead_Ct
                0x000000008007b110                disabledrawing
                0x000000008007ad60                endcluster5
                0x000000008007c2f0                tantoangle
                0x000000008007b284                Menu_Title
                0x000000008007b3e0                Menu_Quit
                0x000000008007b760                maxammo
                0x000000008007b52c                FeaturesUnlocked
                0x000000008007b128                gamepad_system_busy
                0x000000008007b50c                Display_X
                0x000000008007b6a4                passwordTable
                0x000000008007b3b0                Menu_Game
                0x000000008007e570                N64_mute_release
                0x000000008007b504                text_alpha
                0x000000008007ac84                prndindex
                0x000000008007e3c8                millicount
                0x000000008007e57c                sample_rate
                0x000000008007ae44                demobuffer
                0x000000008007b470                Menu_Features
                0x000000008006d530                pat
                0x000000008007b780                ArtifactLookupTable
                0x000000008007ff80                _usb_ctlr_state
                0x000000008007e5e0                __osRunningThread
                0x000000008007b6e0                xspeed
                0x000000008007e334                enabledecay
                0x000000008007e574                pns
                0x000000008007e3b0                wess_driver_iters
                0x000000008007bb70                checkcoord
                0x000000008007b7a0                weaponinfo
                0x000000008007e5d8                __osRunQueue
                0x000000008007fa94                __osPfsInodeCacheBank
                0x000000008007b744                diags
                0x000000008007b180                ControlText
                0x000000008008005c                rdbs_dev_funcs
                0x000000008007ae40                demo_p
                0x000000008007e304                nextDMA
                0x000000008007e3a0                wess_driver_updates
                0x000000008007b720                opposite
                0x000000008007b518                enable_statusbar
                0x000000008007fac8                osViClock
                0x000000008007b51c                SfxVolume
                0x000000008007ad00                endcluster3
                0x000000008007b700                yspeed
                0x000000008007e3a4                wess_driver_sequences
                0x000000008007e3ac                wess_driver_gates
                0x000000008007fd90                __osThprofFlag
                0x000000008007b44c                Menu_CreateNote
                0x000000008007b6cc                hectic_demo
                0x000000008007f7b4                __osCommonHandler
                0x000000008007b118                drawsync2
                0x000000008007e360                CmdFuncArr
                0x0000000080071c28                mobjinfo
                0x000000008007fa80                __osPiAccessQueueEnabled
                0x000000008007b510                Display_Y
                0x000000008007e56c                i
                0x0000000080080050                __osRdb_DbgRead_BufSize
                0x000000008007fa10                __osHwIntTable
                0x000000008007b314                Menu_Volume
                0x000000008007f7b8                NULSTR
                0x000000008007e39c                wess_driver_voices
                0x000000008007e600                __osViDevMgr
                0x000000008007e330                master_sfx_volume
                0x000000008007e4c0                CmdLength
                0x000000008007bac0                forwardmove
                0x000000008007e3c4                T2counter
                0x000000008007b6d4                doPassword
                0x000000008007ffa0                USB_IF_ALT
                0x000000008007fd94                __osThprofFunc
                0x000000008007e332                pan_status
                0x000000008007b598                DefaultConfiguration
                0x000000008006dbf0                sprnames
                0x000000008007b130                SystemTickerStatus
                0x000000008006dde4                states
                0x000000008007aff0                vid_viewport
                0x000000008007b530                TempConfiguration
                0x000000008007e3a8                wess_driver_tracks
                0x000000008007e4e4                CmdSort
                0x000000008007e3c0                WessTimerActive
                0x000000008007fee0                osViModePalLan1
                0x000000008007e5dc                __osActiveQueue
                0x000000008007acd0                endcluster2
                0x000000008007b508                ConfgNumb
                0x000000008007bc30                SkyCloudVertex
                0x000000008007ad30                endcluster4
                0x000000008007fa6c                __osPiTable
                0x000000008007e388                wess_driver_num_dma_buffers
                0x000000008007fad8                __printfunc
                0x000000008007e300                audFrameCt
                0x000000008007b29c                Menu_Skill
                0x000000008007e61c                __additional_scanline
                0x000000008007e3cc                SeqOn
                0x000000008007b154                VtxBlocks
                0x000000008007ba90                mockstrings
                0x000000008007e5b0                __osPreNMI
                0x000000008007ff30                osViModeMpalLan1
                0x000000008007fad0                __osShutdownTime
                0x000000008007af70                vid_rsptask
                0x000000008007bb60                finecosine
                0x000000008007e398                wess_driver_frame_lag
                0x000000008007b11c                drawsync1
                0x000000008007fe90                osViModeNtscLan1
                0x000000008007e5a0                __osContinitialized
                0x000000008007b6d8                CurPasswordSlot
                0x000000008007b520                MusVolume
                0x000000008007e30c                buf
                0x000000008007e578                wess_output_ratio
                0x000000008007bad0                angleturn
                0x000000008007ac80                rndindex
                0x000000008007e620                osViModeTable
                0x000000008007ae50                MapInfo
                0x000000008007b368                Menu_Display
                0x000000008007e38c                wess_driver_num_dma_messages
                0x000000008007b564                ActualConfiguration
                0x000000008007b124                ControllerPakStatus
                0x000000008007e5e4                __osFaultedThread
                0x000000008007e5c0                __osSiAccessQueueEnabled
                0x000000008007faa0                __osBbLibVersion
                0x000000008007b6a0                passwordChar
                0x000000008007e310                lastInfo
                0x000000008007fad4                __OSGlobalIntMask
                0x000000008007b100                Game_Name
                0x000000008007b8a0                animdefs
                0x0000000080074d50                spriteframes
                0x000000008007b524                brightness
                0x000000008007fdb0                __osRdb_IP6_Empty
                0x000000008007fe80                __osViCurr
                0x000000008007ba80                gamepaused
                0x000000008007e314                init_completed
                0x0000000080080058                __osRdb_DbgRead_Err
                0x000000008007bac8                sidemove
                0x000000008007b6d0                run_hectic_demo
                0x000000008007b890                pls_animpic
                0x000000008007e5d0                __osThreadTail
                0x000000008007e3d4                disabledeep
                0x000000008007b120                NextFrameIdx
                0x000000008007b428                Menu_ControllerPakFull
                0x000000008007b134                GfxBlocks
                0x000000008007ab80                rndtable
                0x000000008007e3d0                accmpi
                0x000000008007b770                clipammo
                0x000000008007fe84                __osViNext
                0x000000008007b114                vsync
                0x000000008007ae48                gobalcheats
                0x000000008007b410                Menu_ControllerPakBad
                0x000000008007e394                wess_driver_extra_samples
                0x000000008007ac90                endcluster1
                0x000000008007bc70                SkyFireVertex
                0x000000008007b528                M_SENSITIVITY
                0x000000008007e331                master_mus_volume
                0x000000008007fa38                __osPiIntTable
                0x000000008007e3bc                wess_driver_max_subs_per_trk
                0x000000008007fa90                __osPfsInodeCacheChannel
                0x000000008007fac0                osClockRate
                0x000000008007b1b8                MenuText
                0x000000008007b500                MenuIdx
 codesegment.o(.rodata)
 .rodata        0x00000000800800b0     0x5310 codesegment.o
                0x0000000080084834                __osCauseTable_pt
                0x0000000080084860                __osRcpImTable
                0x0000000080084bf0                __libm_qnan_f
 /home/jhynjhiruu/ique_root/usr/lib/PR/rspboot.o(.data)
 /home/jhynjhiruu/ique_root/usr/lib/PR/rspboot.o(.rodata)
 /home/jhynjhiruu/ique_root/usr/lib/PR/gspF3DEX.NoN.fifo.o(.data)
 .data          0x00000000800853c0      0x800 /home/jhynjhiruu/ique_root/usr/lib/PR/gspF3DEX.NoN.fifo.o
                0x0000000080085bc0                gspF3DEX_NoN_fifoDataEnd
                0x00000000800853c0                gspF3DEX_NoN_fifoDataStart
 /home/jhynjhiruu/ique_root/usr/lib/PR/gspF3DEX.NoN.fifo.o(.rodata)
 /home/jhynjhiruu/ique_root/usr/lib/PR/gspL3DEX.fifo.o(.data)
 .data          0x0000000080085bc0      0x800 /home/jhynjhiruu/ique_root/usr/lib/PR/gspL3DEX.fifo.o
                0x0000000080085bc0                gspL3DEX_fifoDataStart
                0x00000000800863c0                gspL3DEX_fifoDataEnd
 /home/jhynjhiruu/ique_root/usr/lib/PR/gspL3DEX.fifo.o(.rodata)
 /home/jhynjhiruu/ique_root/usr/lib/PR/aspMain.o(.data)
 .data          0x00000000800863c0      0x2c0 /home/jhynjhiruu/ique_root/usr/lib/PR/aspMain.o
                0x0000000080086680                aspMainDataEnd
                0x00000000800863c0                aspMainDataStart
 /home/jhynjhiruu/ique_root/usr/lib/PR/aspMain.o(.rodata)
                0x0000000080086680                .code.data.keep=L(.)

.code.sdata
 codesegment.o(.sdata)
 codesegment.o(.lit8)
 codesegment.o(.lit4)
 /home/jhynjhiruu/ique_root/usr/lib/PR/rspboot.o(.sdata)
 /home/jhynjhiruu/ique_root/usr/lib/PR/rspboot.o(.lit8)
 /home/jhynjhiruu/ique_root/usr/lib/PR/rspboot.o(.lit4)
 /home/jhynjhiruu/ique_root/usr/lib/PR/gspF3DEX.NoN.fifo.o(.sdata)
 /home/jhynjhiruu/ique_root/usr/lib/PR/gspF3DEX.NoN.fifo.o(.lit8)
 /home/jhynjhiruu/ique_root/usr/lib/PR/gspF3DEX.NoN.fifo.o(.lit4)
 /home/jhynjhiruu/ique_root/usr/lib/PR/gspL3DEX.fifo.o(.sdata)
 /home/jhynjhiruu/ique_root/usr/lib/PR/gspL3DEX.fifo.o(.lit8)
 /home/jhynjhiruu/ique_root/usr/lib/PR/gspL3DEX.fifo.o(.lit4)
 /home/jhynjhiruu/ique_root/usr/lib/PR/aspMain.o(.sdata)
 /home/jhynjhiruu/ique_root/usr/lib/PR/aspMain.o(.lit8)
 /home/jhynjhiruu/ique_root/usr/lib/PR/aspMain.o(.lit4)

.code.sbss      0x0000000080086680      0x550
 codesegment.o(.sbss)
 codesegment.o(.scommon)
 .scommon       0x0000000080086680      0x550 codesegment.o
                                          0x0 (size before relaxing)
                0x0000000080086680                GfxIndex
                0x0000000080086684                numleafs
                0x0000000080086688                sectors
                0x000000008008668c                shootthing
                0x0000000080086690                pm_stat
                0x0000000080086694                EnableExpPak
                0x0000000080086698                tmflags
                0x000000008008669c                audDMAIOMesgBuf
                0x00000000800866a0                local_setup_packet
                0x00000000800866a8                opencount
                0x00000000800866ac                BT_DATA
                0x00000000800866b0                topslope
                0x00000000800866b8                sys_msgbuf_vbi4
                0x00000000800866c0                newsubsec
                0x00000000800866c4                bmapwidth
                0x00000000800866c8                skytexture
                0x00000000800866cc                totalitems
                0x00000000800866d0                ticremainder
                0x00000000800866d4                viewcos
                0x00000000800866d8                __osBaseCounter
                0x00000000800866dc                vertexes
                0x00000000800866e0                pssbase
                0x00000000800866e4                numlinespecials
                0x00000000800866e8                minFrameSize
                0x00000000800866ec                tmceilingz
                0x00000000800866f0                firsttex
                0x00000000800866f4                __kmc_pt_mode
                0x00000000800866f8                startmap
                0x00000000800866fc                spawncount
                0x0000000080086700                bombdamage
                0x0000000080086704                samplesbase
                0x0000000080086708                infraredFactor
                0x000000008008670c                macros
                0x0000000080086710                linespeciallist
                0x0000000080086714                File_Num
                0x0000000080086718                bmaporgy
                0x000000008008671c                __osProfileOverflowBin
                0x0000000080086720                data_to_send
                0x0000000080086724                numsides
                0x0000000080086728                tmthing
                0x000000008008672c                blockmaplump
                0x0000000080086730                vid_side
                0x0000000080086734                openbottom
                0x0000000080086738                deathmocktics
                0x000000008008673c                tmx
                0x0000000080086740                __osBbRCountWraps
                0x0000000080086744                linepos
                0x0000000080086748                aimpitch
                0x000000008008674c                FireSide
                0x0000000080086750                openrange
                0x0000000080086754                rejectmatrix
                0x0000000080086758                MapBlueKeyType
                0x000000008008675c                MapRedKeyType
                0x0000000080086760                ref_max_seq_num
                0x0000000080086768                SkyFireData
                0x0000000080086770                viewy
                0x0000000080086774                voice
                0x0000000080086778                blockline
                0x000000008008677c                ticbuttons
                0x0000000080086780                __osRdb_IP6_CurWrite
                0x0000000080086784                wmd_mem
                0x0000000080086788                MusicID
                0x000000008008678c                Pak_Memory
                0x0000000080086790                reverb_status
                0x0000000080086794                opentop
                0x0000000080086798                SkyCloudData
                0x000000008008679c                soundtarget
                0x00000000800867a0                DrawerStatus
                0x00000000800867a8                module_fileref
                0x00000000800867b0                checkposonly
                0x00000000800867b4                ppgd
                0x00000000800867b8                samplescmploopbase
                0x00000000800867bc                __osProfileList
                0x00000000800867c0                validcount
                0x00000000800867c4                samplescmphdrbase
                0x00000000800867c8                firstswx
                0x00000000800867cc                __osBbLastRCount
                0x00000000800867d0                video_hStart
                0x00000000800867d4                frontsector
                0x00000000800867d8                scrollfrac
                0x00000000800867dc                numvertexes
                0x00000000800867e0                seq_loader_enable
                0x00000000800867e4                wessdecomp
                0x00000000800867e8                numlights
                0x00000000800867ec                video_vStart2
                0x00000000800867f0                shotline
                0x00000000800867f4                numdrawsubsectors
                0x00000000800867f8                ty2
                0x00000000800867fc                err_text_x
                0x0000000080086800                numthingspec
                0x0000000080086804                bombspot
                0x0000000080086808                __osViIntrCount
                0x000000008008680c                LightningCounter
                0x0000000080086810                SkyFlags
                0x0000000080086814                am_plyblink
                0x0000000080086818                nvss
                0x000000008008681c                nextstage
                0x0000000080086820                wesserr
                0x0000000080086824                MapYellowKeyType
                0x0000000080086828                __osThprofCount
                0x000000008008682c                Skyfadeback
                0x0000000080086830                tmfloorz
                0x0000000080086834                cameratarget
                0x0000000080086838                itemvalue
                0x000000008008683c                bombsource
                0x0000000080086840                macroactivator
                0x0000000080086844                consoleplayer
                0x0000000080086848                attackrange
                0x000000008008684c                m_actualmap
                0x0000000080086850                testflags
                0x0000000080086854                secretvalue
                0x0000000080086858                __osRdb_Read_Data_Ct
                0x000000008008685c                ThunderCounter
                0x0000000080086860                SkyPicSpace
                0x0000000080086864                drummapsbase
                0x0000000080086868                gamepad_bit_pattern
                0x000000008008686c                pmsbase
                0x0000000080086870                shootz
                0x0000000080086874                pvsbase
                0x0000000080086878                VtxIndex
                0x000000008008687c                ticon
                0x0000000080086880                t1ys
                0x0000000080086884                wessstate
                0x0000000080086888                ticsinframe
                0x000000008008688c                trymove2
                0x0000000080086890                patchesbase
                0x0000000080086894                shootdirz
                0x0000000080086898                MTX2
                0x000000008008689c                GFX2
                0x00000000800868a0                __osRdb_IP6_Size
                0x00000000800868a4                PassCodePos
                0x00000000800868a8                macrothinker
                0x00000000800868ac                ptsbase
                0x00000000800868b0                numsectorspecials
                0x00000000800868b4                __usb_svc_callback_reg
                0x00000000800868b8                numsectors
                0x00000000800868bc                startskill
                0x00000000800868c0                m_vframe1
                0x00000000800868c4                macroidx2
                0x00000000800868c8                data_fileref
                0x00000000800868d0                nummacros
                0x00000000800868d4                SkyCloudOffsetY
                0x00000000800868d8                FogNear
                0x00000000800868dc                globallump
                0x00000000800868e0                ref_pm_stat
                0x00000000800868e4                romcopy_msgbuf
                0x00000000800868e8                __osMaxControllers
                0x00000000800868ec                oldticbuttons
                0x00000000800868f0                totalsecret
                0x00000000800868f4                PassInvalidTic
                0x00000000800868f8                acceleratestage
                0x0000000080086900                __osCurrentTime
                0x0000000080086908                bulletslope
                0x000000008008690c                sys_msg_joy
                0x0000000080086910                video_vStart1
                0x0000000080086914                wmd_size
                0x0000000080086918                if_status
                0x000000008008691c                dmaBuffs
                0x0000000080086920                viewsin
                0x0000000080086924                wmd_mem_is_mine
                0x0000000080086928                end_time
                0x000000008008692c                t1xs
                0x0000000080086930                __osThprofStack
                0x0000000080086934                statuslump
                0x0000000080086938                Error_func
                0x000000008008693c                R_RenderSKY
                0x0000000080086940                lastticon
                0x0000000080086944                tmy
                0x0000000080086948                start_time
                0x000000008008694c                itemlines
                0x0000000080086950                bmaporgx
                0x0000000080086954                linetarget
                0x0000000080086958                lastanim
                0x000000008008695c                closeline
                0x0000000080086960                aimfrac
                0x0000000080086964                lasttex
                0x0000000080086968                oldx
                0x000000008008696c                subsectors
                0x0000000080086970                intercept_p
                0x0000000080086974                gamevbls
                0x0000000080086978                endsubsector
                0x000000008008697c                segs
                0x0000000080086980                cursorpos
                0x0000000080086984                last_ticon
                0x0000000080086988                testy
                0x000000008008698c                numtextures
                0x0000000080086990                slidething
                0x0000000080086994                Error_module
                0x0000000080086998                Pak_Data
                0x000000008008699c                VTX1
                0x00000000800869a0                numsegs
                0x00000000800869a4                imask
                0x00000000800869a8                dev_global_struct
                0x00000000800869b0                SkyCloudOffsetX
                0x00000000800869b4                firstsprite
                0x00000000800869b8                __osBbLastVCount
                0x00000000800869bc                usb_status
                0x00000000800869c0                nextmap
                0x00000000800869c4                SkyCloudColor
                0x00000000800869c8                numsprites
                0x00000000800869cc                restartmacro
                0x00000000800869d0                demoplayback
                0x00000000800869d4                tmdropoffz
                0x00000000800869d8                totalkills
                0x00000000800869dc                gameskill
                0x00000000800869e0                samplesinfochunk
                0x00000000800869e4                bmapheight
                0x00000000800869e8                numlines
                0x00000000800869ec                viewplayer
                0x00000000800869f0                testx
                0x00000000800869f4                __osThprofLastTimer
                0x00000000800869f8                sysinit
                0x00000000800869fc                viewz
                0x0000000080086a00                __osContLastCmd
                0x0000000080086a04                t2y
                0x0000000080086a08                shootdiry
                0x0000000080086a0c                __osEepromTimerMsg
                0x0000000080086a10                gametic
                0x0000000080086a14                __osRdb_IP6_CurSend
                0x0000000080086a18                nodes
                0x0000000080086a1c                GFX1
                0x0000000080086a20                textures
                0x0000000080086a24                FlashEnvColor
                0x0000000080086a28                numnodes
                0x0000000080086a2c                __osTimerCounter
                0x0000000080086a30                samplesrawloopbase
                0x0000000080086a34                testradius
                0x0000000080086a38                pcurabstime
                0x0000000080086a3c                vblsinframe
                0x0000000080086a40                macroidx1
                0x0000000080086a44                globalcm
                0x0000000080086a48                SkyVoidColor
                0x0000000080086a50                sys_msgbuf_vbi2
                0x0000000080086a58                MenuAnimationTic
                0x0000000080086a5c                loaderfile
                0x0000000080086a60                __usb_endpt_desc_reg
                0x0000000080086a64                gamepad_data
                0x0000000080086a68                lights
                0x0000000080086a6c                lastsprite
                0x0000000080086a70                demorecording
                0x0000000080086a74                am_plycolor
                0x0000000080086a78                bottomslope
                0x0000000080086a7c                g_wddloc
                0x0000000080086a80                quakeviewx
                0x0000000080086a84                checkthing
                0x0000000080086a88                sfontlump
                0x0000000080086a8c                displayplayer
                0x0000000080086a90                sof_count
                0x0000000080086a94                seq_loader_offset
                0x0000000080086a98                __osBbVCountWraps
                0x0000000080086a9c                leafs
                0x0000000080086aa0                bestslidefrac
                0x0000000080086aa4                activemacro
                0x0000000080086aa8                __osArcHostHandle
                0x0000000080086ab0                vid_task
                0x0000000080086ab4                MenuItem
                0x0000000080086ab8                floatok
                0x0000000080086abc                __osProfileListEnd
                0x0000000080086ac0                sectorspeciallist
                0x0000000080086ac4                audDMAMessageBuf
                0x0000000080086ac8                aimslope
                0x0000000080086acc                sides
                0x0000000080086ad0                blockmap
                0x0000000080086ad4                killvalue
                0x0000000080086ad8                err_text_y
                0x0000000080086adc                wmd_end
                0x0000000080086ae0                __osRdb_Read_Data_Buf
                0x0000000080086ae4                t2xs
                0x0000000080086ae8                maxRSPCmds
                0x0000000080086aec                blocklinks
                0x0000000080086af0                __Usb_Reset_Count
                0x0000000080086af8                music_sequence
                0x0000000080086afc                viewangle
                0x0000000080086b00                numdrawvissprites
                0x0000000080086b04                tx2
                0x0000000080086b08                early_exit
                0x0000000080086b0c                macroline
                0x0000000080086b10                __osRdb_Usb_StartSend
                0x0000000080086b14                t2x
                0x0000000080086b18                visspritehead
                0x0000000080086b1c                maplights
                0x0000000080086b20                la_damage
                0x0000000080086b24                t2ys
                0x0000000080086b28                VTX2
                0x0000000080086b2c                gamemap
                0x0000000080086b30                Pak_Size
                0x0000000080086b34                viewx
                0x0000000080086b38                maxFrameSize
                0x0000000080086b3c                gameaction
                0x0000000080086b40                endpoint
                0x0000000080086b44                quakeviewy
                0x0000000080086b48                lowfloor
                0x0000000080086b4c                camviewpitch
                0x0000000080086b50                __osRdb_IP6_Data
                0x0000000080086b54                patchmapsbase
                0x0000000080086b58                sumbolslump
                0x0000000080086b5c                shootdirx
                0x0000000080086b60                bestslideline
                0x0000000080086b64                rendersky
                0x0000000080086b68                spawnlist
                0x0000000080086b70                setup_packet
                0x0000000080086b78                MenuCall
                0x0000000080086b7c                mainzone
                0x0000000080086b80                sys_msgbuf_vbi3
                0x0000000080086b88                module_loaded
                0x0000000080086b8c                fp_seq_file
                0x0000000080086b90                MTX1
                0x0000000080086b94                macrointeger
                0x0000000080086b98                __osRdb_IP6_Ct
                0x0000000080086b9c                closedist
                0x0000000080086ba0                oldy
                0x0000000080086ba4                FogColor
                0x0000000080086ba8                numsubsectors
                0x0000000080086bac                movething
                0x0000000080086bb0                frameSize
                0x0000000080086bb4                sightzstart
                0x0000000080086bb8                fp_wmd_file
                0x0000000080086bbc                text_alpha_change_value
                0x0000000080086bc0                macrocounter
                0x0000000080086bc4                SkyPicMount
                0x0000000080086bc8                lines
                0x0000000080086bcc                slidemo
 /home/jhynjhiruu/ique_root/usr/lib/PR/rspboot.o(.sbss)
 /home/jhynjhiruu/ique_root/usr/lib/PR/rspboot.o(.scommon)
 /home/jhynjhiruu/ique_root/usr/lib/PR/gspF3DEX.NoN.fifo.o(.sbss)
 /home/jhynjhiruu/ique_root/usr/lib/PR/gspF3DEX.NoN.fifo.o(.scommon)
 /home/jhynjhiruu/ique_root/usr/lib/PR/gspL3DEX.fifo.o(.sbss)
 /home/jhynjhiruu/ique_root/usr/lib/PR/gspL3DEX.fifo.o(.scommon)
 /home/jhynjhiruu/ique_root/usr/lib/PR/aspMain.o(.sbss)
 /home/jhynjhiruu/ique_root/usr/lib/PR/aspMain.o(.scommon)

.code.bss       0x0000000080086bd0    0x70a54
 codesegment.o(.bss)
 .bss           0x0000000080086bd0    0x1e6a0 codesegment.o
 codesegment.o(COMMON)
 COMMON         0x00000000800a5270    0x523b4 codesegment.o
                                          0x0 (size before relaxing)
                0x00000000800a5270                alignbuf
                0x00000000800a528c                tmp_patgrpdata
                0x00000000800a52a8                tryopen
                0x00000000800a52c0                sys_msgque_vbi2
                0x00000000800a52d8                vissprites
                0x00000000800a6ae0                sys_rcp_stack
                0x00000000800a6ee0                __osThreadSave
                0x00000000800a7090                gamepad_status
                0x00000000800a70a0                wess_dmaMessageBuf
                0x00000000800a70c0                _usb_device_state
                0x00000000800a7170                Mtx_base
                0x00000000800a7370                activeplats
                0x00000000800a73e8                trace
                0x00000000800a7400                __osContPifRam
                0x00000000800a7440                finesine
                0x00000000800b1440                tmp_mss
                0x00000000800b1468                __osThprofHeap
                0x00000000800b1c68                __Dom2SpeedParam
                0x00000000800b1cdc                pnotestate
                0x00000000800b1ee4                __am
                0x00000000800b1f48                bootStack
                0x00000000800b3f48                sys_ticker_thread
                0x00000000800b40f8                FileState
                0x00000000800b42f8                gfx_yield_buff
                0x00000000800ba2f8                dmaState
                0x00000000800ba308                idle_stack
                0x00000000800bc328                intercepts
                0x00000000800bc928                thingspec
                0x00000000800bc948                playerstarts
                0x00000000800bc958                __osBbUsbCtlrQ
                0x00000000800bc988                solidsubsectors
                0x00000000800bcd88                sys_msgque_vbi4
                0x00000000800bcda0                cmploop
                0x00000000800bcdd0                tmbbox
                0x00000000800bcde0                players
                0x00000000800bcf30                strace
                0x00000000800bcf40                usebbox
                0x00000000800bcf50                pstats
                0x00000000800bcf5c                macroqueue
                0x00000000800bcf80                R_ProjectionMatrix
                0x00000000800bcfc0                anims
                0x00000000800bd1dc                sys_msgbuf_vbi
                0x00000000800bd21c                useline
                0x00000000800bd22c                am_box
                0x00000000800bd23c                MenuData
                0x00000000800bd2bc                __osPiAccessQueue
                0x00000000800bd2d8                main_stack
                0x00000000800c72d8                __Dom1SpeedParam
                0x00000000800c734c                sfile_hdr
                0x00000000800c736c                wessnode
                0x00000000800c7380                fifo_buff
                0x00000000800c9380                solidcols
                0x00000000800c94c0                emptymobj
                0x00000000800c9554                sys_msgque_vbi3
                0x00000000800c956c                flashCards
                0x00000000800c95d0                __osBaseTimer
                0x00000000800c95f0                msgbuf_Pi
                0x00000000800c97f0                audDMAMessageQ
                0x00000000800c9808                idle_thread
                0x00000000800c99b8                thinkercap
                0x00000000800c99c4                sys_msgque_vbi
                0x00000000800c99e0                main_thread
                0x00000000800c9b90                wess_dmaMessageQ
                0x00000000800c9ba8                ControllerPak
                0x00000000800c9c10                Gfx_base
                0x00000000800ddc10                tmp_moddata
                0x00000000800ddc34                romcopy_msgque
                0x00000000800ddc4c                mobjhead
                0x00000000800ddce0                __osProfTimerQ
                0x00000000800ddcf8                msgque_Pi
                0x00000000800ddd10                sys_ticker_stack
                0x00000000800ded10                __osEepromTimer
                0x00000000800ded30                __osPfsInodeCache
                0x00000000800dee30                scratch_area
                0x00000000800dee50                buttonlist
                0x00000000800def90                __osEventStateTab
                0x00000000800df0a0                activeceilings
                0x00000000800df118                timetext
                0x00000000800df128                Vtx_base
                0x00000000800f7130                __osPfsPifRam
                0x00000000800f7170                thprof
                0x00000000800f7570                macrotempline
                0x00000000800f75bc                __osEepromTimerQ
                0x00000000800f75d4                __osSiAccessQueue
                0x00000000800f75ec                Passwordbuff
                0x00000000800f75fc                rawloop
                0x00000000800f760c                sys_msgque_joy
 /home/jhynjhiruu/ique_root/usr/lib/PR/rspboot.o(.bss)
 /home/jhynjhiruu/ique_root/usr/lib/PR/rspboot.o(COMMON)
 /home/jhynjhiruu/ique_root/usr/lib/PR/gspF3DEX.NoN.fifo.o(.bss)
 /home/jhynjhiruu/ique_root/usr/lib/PR/gspF3DEX.NoN.fifo.o(COMMON)
 /home/jhynjhiruu/ique_root/usr/lib/PR/gspL3DEX.fifo.o(.bss)
 /home/jhynjhiruu/ique_root/usr/lib/PR/gspL3DEX.fifo.o(COMMON)
 /home/jhynjhiruu/ique_root/usr/lib/PR/aspMain.o(.bss)
 /home/jhynjhiruu/ique_root/usr/lib/PR/aspMain.o(COMMON)
                0x00000000800f7630                .=0x800f7630

.mem_heap.text  0x00000000800f7630        0x0
 mem_heap.o(.text)
                0x00000000800f7630                .mem_heap.text.keep=L(.)

.mem_heap.data  0x00000000800f7630        0x0
 mem_heap.o(.data)
 mem_heap.o(.rodata)
                0x00000000800f7630                .mem_heap.data.keep=L(.)

.mem_heap.sdata
 mem_heap.o(.sdata)
 mem_heap.o(.lit8)
 mem_heap.o(.lit4)

.mem_heap.sbss
 mem_heap.o(.sbss)
 mem_heap.o(.scommon)

.mem_heap.bss   0x00000000800f7630   0x26b510
 mem_heap.o(.bss)
 mem_heap.o(COMMON)
 COMMON         0x00000000800f7630   0x26b510 mem_heap.o
                                          0x0 (size before relaxing)
                0x00000000800f7630                mem_heap
                0x0000000080362b40                .=0x80362b40

.audio_heap.text
                0x0000000080362b40        0x0
 audio_heap.o(.text)
                0x0000000080362b40                .audio_heap.text.keep=L(.)

.audio_heap.data
                0x0000000080362b40        0x0
 audio_heap.o(.data)
 audio_heap.o(.rodata)
                0x0000000080362b40                .audio_heap.data.keep=L(.)

.audio_heap.sdata
 audio_heap.o(.sdata)
 audio_heap.o(.lit8)
 audio_heap.o(.lit4)

.audio_heap.sbss
 audio_heap.o(.sbss)
 audio_heap.o(.scommon)

.audio_heap.bss
                0x0000000080362b40    0x44800
 audio_heap.o(.bss)
 audio_heap.o(COMMON)
 COMMON         0x0000000080362b40    0x44800 audio_heap.o
                                          0x0 (size before relaxing)
                0x0000000080362b40                audio_heap
                0x00000000803a7340                .=0x803a7340

.cfb.text       0x00000000803a7340        0x0
 cfb.o(.text)
                0x00000000803a7340                .cfb.text.keep=L(.)

.cfb.data       0x00000000803a7340        0x0
 cfb.o(.data)
 cfb.o(.rodata)
                0x00000000803a7340                .cfb.data.keep=L(.)

.cfb.sdata
 cfb.o(.sdata)
 cfb.o(.lit8)
 cfb.o(.lit4)

.cfb.sbss
 cfb.o(.sbss)
 cfb.o(.scommon)

.cfb.bss        0x00000000803a7340    0x96000
 cfb.o(.bss)
 cfb.o(COMMON)
 COMMON         0x00000000803a7340    0x96000 cfb.o
                                          0x0 (size before relaxing)
                0x00000000803a7340                cfb

.mdebug         0x000000008043d340   0x186b7c
 *(.mdebug)
 .mdebug        0x000000008043d340   0x66c6f4 codesegment.o
 .mdebug        0x0000000080aa9a34     0x6198 mem_heap.o
 .mdebug        0x0000000080aafbcc     0x619c audio_heap.o
 .mdebug        0x0000000080ab5d68     0x6198 cfb.o
 .mdebug        0x0000000080abbf00      0x820 /tmp/segmentNORhV5.o

/DISCARD/
 *(.note)
 *(.reginfo)
 *(.comment)
LOAD /tmp/segmentNORhV5.o
OUTPUT(doom64 elf32-bigmips)

.rel.dyn        0x000000008043d340        0x0

.text           0x000000008043d340        0x0

.data           0x000000008043d340        0x0

.bss            0x000000008043d340        0x0
Nintendo64 Makerom v2.4 -BETA- for IRIX.
